* Micro Focus Server Express         V5.1 revision 000 06-Oct-15 17:18 Page   1
* ECS025.cbl
* Options: int("ECS025.int") anim csi verbose NOBOUND PARAMCOUNTCHECK
*          directives(cobopt.bth) endp list("ECS025.lst")
* Setting: NOACCEPTREFRESH NOADV ALIGN"8" ALPHASTART"1" NOALTER NOAMODE ANIM
*          NOANIMPREP ANS85 APOST NOAREACHECK ARITHMETIC"OSVS" ASSIGN
*          "EXTERNAL" NOASSIGN-PRINTER NOAUTOLOCK NOBELL NOBOUND NOBRIEF
*          NOBS2000 BWZSTAR NOBYTEMODEMOVE CALLFH"ebmlsfile" NOCALLMCS
*          NOCALLRECOVERY CALLSORT"EXTSM" CANCEL CANCELLBR NOCHANGEMESSAGE
*          CHARSET"ASCII" NOCHECKDIV NOCHECKREFMOD NOCICS CICS-CPY
*          NOCICSOPTIMIZE NOCMPR2 NOCOBFSTATCONV NOCOBIDY NOCOBOL370 COBOLDIR
*          NOCOMP COMP-5"2" COMP-6"2" NOCOMS85 CONFIRM NOCONVERTRET CONVSPACE
*          COPYEXT",cbl,cpy" NOCOPYLBR COPYLIST COPYLISTCOMMENT"1" CSI
*          CURRENCY-SIGN"36" CURRENT-DATE"MMDDYY" NODATA DATACOMPRESS"0"
*          NODATA-CONTEXT DATE DBCHECK DBCS"2" NODBCSSOSI DBSPACE DE-EDIT"2"
*          DEFAULTBYTE"32" NODEFAULTCALLS DETECTLOCK NODG DIALECT"MF"
*          NODIRECTIVES-IN-COMMENTS NODOSVS NODPCINSUBSCRIPT DYNAM
*          NOEARLY-RELEASE ECHO NOECHOALL NOEDITOR ENSUITE"0" NOENTCOBOL
*          ERRFORMAT"1" ERRLIST"EMBED" NOERRQ FASTSORT NOFCD3 NOFCDREG
*          NOFDCLEAR NOFILESHARE FILETYPE"0" NOFLAG NOFLAGAS NOFLAGCD
*          NOFLAGEUC NOFLAGMIG NOFLAGQ FLAGSINEDIT NOFLAGSTD NOFOLDCALLNAME
*          NOFOLDCOPYNAME FORM"60" NOFP-ROUNDING NOHOSTARITHMETIC
*          NOHOSTCONTZERO NOHOST-NUMCOMPARE NOHOST-NUMMOVE NOHOSTFD NOHOSTRW
*          NOIBM-MS IBMCOMP IDXFORMAT"0" NOILGEN IMPLICITSCOPE NOINDD
*          INFORETURN"0" NOINITCALL INITPTR INT"ECS025.int" INTDATE"ANSI"
*          INTLEVEL"2" IOCONV NOISO2002 NOIXNLSKEY NOIXNUMKEY KEEP-INT
*          KEYCHECK KEYCOMPRESS"0" LIBRARIAN"2" NOLINE-COUNT LIST"ECS025.lst"
*          LISTPATH"" LISTWIDTH"80" LITVAL-SIZE"4" LOCKTYPE"0" NOMAPNAME
*          NOMAXERROR METHODDEFAULT"REFERENCE" MF"15" MFCOMMENT NOMOVELENCHECK
*          NOMS NOMVS NATIVE"ASCII" NONATIVEFLOATINGPOINT NONCHAR
*          NONEWBASENAME NONLS NSYMBOL"DBCS" NOODOOSVS NOODOSLIDE
*          NOOLDBLANKLINE NOOLDCOPY NOOLDINDEX NOOLDNEXTSENTENCE NOOLDREADINTO
*          NOOLDSTRMIX OOCTRL"-C-E-G-P+Q+R-S+W" OPTIONAL-FILE NOOS390 OSEXT""
*          NOOSVS NOOUTDD NOP64 NOPANVALET PERFORM-TYPE"OSVS" NOPREPLIST
*          NOPREPROCESS NOPRINT-EXT NOPROFILE NOPROGID-COMMENT
*          NOPROGID-INT-NAME NOPROTECT-LINKAGE PROTOTYPE"RELAXED" QUAL
*          QUALPROC NOQUERY NOQUOTE NORAWLIST NORDW RECMODE"F" NOREENTRANT
*          NOREF NOREFNO REMAINDER"1" REPORT-LINE"256" RESEQ NORETRYLOCK
*          REWRITE-LS NORM RTNCODE-SIZE"4" NORWHARDPAGE NOSAA SEG NOSEQCHK
*          SEQUENTIAL"RECORD" NOSERIAL SETTING"LINE" NOSHAREOUTDD NOSHOW-DIR
*          SIGN"ASCII" NOSIGNDISCARD NOSIGNFIXUP SORTTYPE"DFSORT" SOURCEFORMAT
*          "FIXED" SOURCETABSTOP"8" NOSPZERO NOSSRANGE STDERR NOSTICKY-LINKAGE
*          NOSTICKY-PERFORM SUPFF SWITCHTYPE"1" SYMBSTART"1" SYSPUNCH"132"
*          TERMPAGE TIME NOTRACE NOTRUNC NOTRUNCCALLNAME NOTRUNCCOPY TRUNCINC
*          "10" UNICODE"NATIVE" VERBOSE VSC2"2" WARNING"1" NOWB NOWB2 NOWB3
*          WEBSERVER"CGI" NOWRITELOCK NOWRITETHRU NOXOPEN NOXREF
*          NOZEROLENGTHFALSE NOZEROSEQ NOZWB
     1 IDENTIFICATION DIVISION.                                         04/04/98
     2                                                                  ECS025
     3 PROGRAM-ID.                ECS025.                                  LV013
     4*              PROGRAM CONVERTED BY                               ECS025
     5*              COBOL CONVERSION AID PO 5785-ABJ                   ECS025
     6*              CONVERSION DATE 10/03/95 15:28:18.                 ECS025
     7*             PROGRAM REVIEWED FOR YEAR 2000 COMPLIANCE           ECS025
     8*                           VMOD=2.007.                           ECS025
     9                                                                  ECS025
    10*AUTHOR.     LOGIC, INC.                                          ECS025
    11*            DALLAS, TEXAS.                                       ECS025
    12                                                                  ECS025
    13*DATE-COMPILED.                                                   ECS025
* Micro Focus Server Express         V5.1 revision 000 06-Oct-15 17:18 Page   2
* ECS025.cbl
    14                                                                  ECS025
    15*SECURITY.   *****************************************************ECS025
    16*            *                                                   *ECS025
    17*            *   THIS PROGRAM IS THE PROPERTY OF LOGIC, INC.     *ECS025
    18*            *                                                   *ECS025
    19*            *   USE OF THIS PROGRAM BY OTHER THAN THE EMPLOYEES *ECS025
    20*            *   OF LOGIC, INC. IS EXPRESSLY PROHIBITED WITHOUT  *ECS025
    21*            *   THE PRIOR WRITTEN PERMISSION OF LOGIC INC.      *ECS025
    22*            *                                                   *ECS025
    23*            *****************************************************ECS025
    24                                                                  ECS025
    25*REMARKS.                                                         ECS025
    26                                                                  ECS025
    27*        ACCOUNT CURRENT DETAIL TOTALS BY ACCOUNT,STATE           ECS025
    28*            AND  COMPANY.                                        ECS025
    29                                                                  ECS025
    30******************************************************************
    31*                   C H A N G E   L O G
    32*
    33* CHANGES ARE MARKED BY THE CHANGE EFFECTIVE DATE.
    34*-----------------------------------------------------------------
    35*  CHANGE   CHANGE REQUEST PGMR  DESCRIPTION OF CHANGE
    36* EFFECTIVE    NUMBER
    37*-----------------------------------------------------------------
    38* 052814  CR2014012300001  PEMA  DCC CREDIT UNION CHANGES
    39******************************************************************
    40 ENVIRONMENT DIVISION.                                            ECS025
    41 CONFIGURATION SECTION.                                           ECS025
    42 SPECIAL-NAMES.                                                   ECS025
    43     C02 IS LCP-CH2                                               ECS025
    44     C03 IS LCP-CH3                                               ECS025
    45     C04 IS LCP-CH4                                               ECS025
    46     C05 IS LCP-CH5                                               ECS025
    47     C06 IS LCP-CH6                                               ECS025
    48     C07 IS LCP-CH7                                               ECS025
    49     C08 IS LCP-CH8                                               ECS025
    50     C09 IS LCP-CH9                                               ECS025
    51     C10 IS LCP-CH10                                              ECS025
    52     C11 IS LCP-CH11                                              ECS025
    53     C12 IS LCP-CH12                                              ECS025
    54     S01 IS LCP-P01                                               ECS025
    55     S02 IS LCP-P02.                                              ECS025
    56 INPUT-OUTPUT SECTION.                                            ECS025
    57 FILE-CONTROL.                                                    ECS025
    58     SELECT RE-RECAP         ASSIGN TO SYS018-UT-2400-S-SYS018.   ECS025
    59     SELECT AM-MSTR          ASSIGN TO SYS015                     ECS025
    60                             ACCESS IS SEQUENTIAL                 ECS025
    61                             ORGANIZATION IS INDEXED              ECS025
    62                             FILE STATUS IS AM-FILE-STATUS        ECS025
    63                             RECORD KEY IS AM-CONTROL-PRIMARY.    ECS025
    64     SELECT PRNTR            ASSIGN TO SYS008-UR-1403-S-SYS008.   ECS025
    65     SELECT DISK-DATE        ASSIGN TO SYS019-UT-3380-S-SYS019.   ECS025
    66     SELECT FICH             ASSIGN TO SYS020-UT-2400-S-SYS020.   ECS025
    67                                                                  ECS025
* Micro Focus Server Express         V5.1 revision 000 06-Oct-15 17:18 Page   3
* ECS025.cbl
    69 DATA DIVISION.                                                   ECS025
    70 FILE SECTION.                                                    ECS025
    71 FD  RE-RECAP                                                     ECS025
*   72                             COPY ECSEXTFD.                       ECS025
    73******************************************************************07/10/97
    74*                                                                *ECSEXTFD
    75*                            ECSEXTFD                            *   LV001
    76*                            VMOD=2.001                          *ECSEXTFD
    77*                                                                *ECSEXTFD
    78*  NO  CID  MODS  IN  COPYBOOK  ECSEXTFD                         *ECSEXTFD
    79*                                                                *ECSEXTFD
    80******************************************************************ECSEXTFD
    81     RECORDING MODE F                                             ECSEXTFD
    82     LABEL RECORDS STANDARD                                       ECSEXTFD
    83     BLOCK CONTAINS 0 RECORDS
    84     RECORD CONTAINS 510 CHARACTERS.                              ECSEXTFD
    85******************************************************************ECSEXTFD
*   86                             COPY ECSEXT01.                       ECS025
    87******************************************************************04/29/98
    88*                                                                *ECSEXT01
    89*                            ECSEXT01                            *   LV015
    90*           COPYBOOK REVIEWED FOR YEAR 2000 COMPLIANCE               CL*15
    91*                            VMOD=2.015                          *ECSEXT01
    92*                                                                *ECSEXT01
    93*   FILE DESCRIPTION =  DETAIL EXTRACTS                          *ECSEXT01
    94*                       (PREMIUM, COMM., CLAIMS, AND RESERVES)   *ECSEXT01
    95*                                                                *ECSEXT01
    96*   FILE TYPE = SEQUENTIAL                                       *ECSEXT01
    97*   RECORD SIZE = 510  RECFORM = FIXED                           *ECSEXT01
    98*                                                                *ECSEXT01
    99*   KEY DATA =                                   START=5, LEN=36 *ECSEXT01
   100*                                                                *ECSEXT01
   101******************************************************************ECSEXT01
   102******************************************************************
   103*                   C H A N G E   L O G
   104*
   105* CHANGES ARE MARKED BY THE CHANGE EFFECTIVE DATE.
   106*-----------------------------------------------------------------
   107*  CHANGE   CHANGE REQUEST PGMR  DESCRIPTION OF CHANGE
   108* EFFECTIVE    NUMBER
   109*-----------------------------------------------------------------
   110* 040504    2003080800002  PEMA  ADD DEALER INCENTIVE PROCESSING
   111* 042110  CR2010010400006  PEMA  ADD FIELDS FOR EMERALD 032
   112* 071211  CR2009050700003  PEMA  ADD SPP DEALER DIRECT
   113* 071211  CR2010012700001  PEMA  ADD SPP DEALER DIRECT
   114* 112911  CR2011083000003  PEMA  ADD SPPDDF TRUNCATED
   115* 032612  CR2011110200001  PEMA  AHL CHANGES
   116******************************************************************
   117                                                                  ECSEXT01
   118 01  DETAIL-EXTRACT.                                              ECSEXT01
   119     02 DETAIL-FILE.                                              ECSEXT01
   120     12  DE-RECORD-ID                      PIC XX.                ECSEXT01
   121         88  VALID-DE-ID                      VALUE 'DE'.         ECSEXT01
   122                                                                  ECSEXT01
   123     12  DE-COMPANY-CD                     PIC X.                 ECSEXT01
   124                                                                  ECSEXT01
   125     12  DE-REIN                           PIC X.                 ECSEXT01
   126                                                                  ECSEXT01
* Micro Focus Server Express         V5.1 revision 000 06-Oct-15 17:18 Page   4
* ECS025.cbl (/apps/prod/cid1p/copy/ECSEXT01)
   127     12  DE-CONTROL.                                              ECSEXT01
   128         16  DE-CNTRL1.                                           ECSEXT01
   129             20  DE-CARRIER                PIC X.                 ECSEXT01
   130             20  DE-GROUPING.                                     ECSEXT01
   131                 24  DE-GROUP-PREFIX       PIC XXX.               ECSEXT01
   132                 24  DE-GROUP-PRIME        PIC XXX.               ECSEXT01
   133             20  DE-STATE                  PIC XX.                ECSEXT01
   134             20  DE-ACCOUNT.                                      ECSEXT01
   135                 24  DE-ACCT-PREFIX        PIC X(4).              ECSEXT01
   136                 24  DE-ACCT-PRIME         PIC X(6).              ECSEXT01
   137         16  DE-CNTRL2.                                           ECSEXT01
   138             20  DE-EFF                    PIC 9(11)  COMP-3.     ECSEXT01
   139             20  DE-CERT.                                         ECSEXT01
   140                 24 DE-CERT-NO.                                   ECSEXT01
   141                     28  DE-CRT-PREFIX     PIC XXX.               ECSEXT01
   142                     28  DE-CRT-PRIME      PIC X(7).              ECSEXT01
   143                 24  DE-CRT-SUF            PIC X.                 ECSEXT01
   144                                                                  ECSEXT01
   145     12  DE-TRANS                          PIC X.                 ECSEXT01
   146         88  DE-ISSUE                         VALUE 'I'.          ECSEXT01
   147         88  DE-RC-ISSUE                      VALUE '8'.          ECSEXT01
   148         88  DE-CANCEL                        VALUE 'C'.          ECSEXT01
   149         88  DE-RC-CANCEL                     VALUE '7'.          ECSEXT01
   150         88  DE-CLAIM                         VALUE 'X'.          ECSEXT01
   151         88  DE-RESTORE                       VALUE 'R'.          ECSEXT01
   152         88  DE-RESERVE                       VALUE 'Y'.          ECSEXT01
   153         88  DE-RR-RC-ISS                     VALUE 'J'.          ECSEXT01
   154         88  DE-RR-RC-CNC                     VALUE 'K'.          ECSEXT01
   155         88  DE-RR-RC-CLM                     VALUE 'L'.          ECSEXT01
   156                                                                  ECSEXT01
   157     12  DE-REPORT-CODE-1                  PIC X(10).             ECSEXT01
   158     12  DE-REPORT-CODE-2                  PIC X(10).             ECSEXT01
   159                                                                  ECSEXT01
   160     12  DE-NAME.                                                 ECSEXT01
   161         16  DE-LNAME                      PIC X(15).             ECSEXT01
   162         16  DE-FNAME.                                            ECSEXT01
   163             20  DE-1ST-INIT-FNAME         PIC X.                 ECSEXT01
   164             20  FILLER                    PIC X(9).              ECSEXT01
   165         16  DE-INIT                       PIC X.                 ECSEXT01
   166     12  DE-AGE                            PIC 99.                ECSEXT01
   167     12  DE-SEX                            PIC X.                 ECSEXT01
   168     12  DE-SOC-SEC-NO                     PIC X(11).             ECSEXT01
   169                                                                  ECSEXT01
   170     12  DE-LF-TYPE                        PIC XX.                ECSEXT01
   171     12  DE-LF-TERM                        PIC 999        COMP-3. ECSEXT01
   172     12  DE-LF-BEN                         PIC S9(9)V99   COMP-3. ECSEXT01
   173     12  DE-LF-CNBEN                       PIC S9(9)V99   COMP-3. ECSEXT01
   174     12  DE-LF-PRM                         PIC S9(7)V99   COMP-3. ECSEXT01
   175     12  DE-LF-BEN-ALT                     PIC S9(9)V99   COMP-3. ECSEXT01
   176     12  DE-LF-CNBEN-ALT                   PIC S9(9)V99   COMP-3. ECSEXT01
   177     12  DE-LF-PRM-ALT                     PIC S9(7)V99   COMP-3. ECSEXT01
   178     12  DE-LF-RFND                        PIC S9(7)V99   COMP-3. ECSEXT01
   179                                                                  ECSEXT01
   180     12  DE-LF-STAT-CDE                    PIC X.                 ECSEXT01
   181     12  DE-LF-PREV-STAT                   PIC X.                 ECSEXT01
   182     12  DE-LF-CANC-DTE                    PIC 9(11)      COMP-3. ECSEXT01
   183     12  DE-LF-CANC-EXIT-DT                PIC 9(11)      COMP-3. ECSEXT01
   184                                                                  ECSEXT01
* Micro Focus Server Express         V5.1 revision 000 06-Oct-15 17:18 Page   5
* ECS025.cbl (/apps/prod/cid1p/copy/ECSEXT01)
   185     12  DE-AH-TYPE                        PIC XX.                ECSEXT01
   186     12  DE-AH-TERM                        PIC 999        COMP-3. ECSEXT01
   187     12  DE-AH-BEN                         PIC S9(7)V99   COMP-3. ECSEXT01
   188     12  DE-AH-PRM                         PIC S9(7)V99   COMP-3. ECSEXT01
   189     12  DE-AH-RFND                        PIC S9(7)V99   COMP-3. ECSEXT01
   190                                                                  ECSEXT01
   191     12  DE-AH-STAT-CDE                    PIC X.                 ECSEXT01
   192     12  DE-AH-PREV-STAT                   PIC X.                 ECSEXT01
   193     12  DE-AH-CANC-DTE                    PIC 9(11)  COMP-3.     ECSEXT01
   194     12  DE-AH-CANC-EXIT-DT                PIC 9(11)  COMP-3.     ECSEXT01
   195                                                                  ECSEXT01
   196     12  DE-LIVES                          PIC S9(7)      COMP-3. ECSEXT01
   197     12  DE-ADDL-CLP REDEFINES DE-LIVES
   198                                           PIC S9(5)V99   COMP-3.
   199     12  DE-NUM-BILLED                     PIC S9(7)      COMP-3. ECSEXT01
   200     12  FILLER REDEFINES DE-NUM-BILLED.
   201         16  DE-CLP-STATE                  PIC XX.
   202         16  DE-DCC-DDF-REM-TRM3           PIC S999       COMP-3.
   203     12  DE-CANCEL-CNT-ITD                 PIC S999       COMP-3. ECSEXT01
   204     12  DE-CANCEL-CNT-YTD                 PIC S999       COMP-3. ECSEXT01
   205                                                                  ECSEXT01
   206     12  DE-APR                            PIC S999V9(4)  COMP-3. ECSEXT01
   207     12  DE-PMT-FREQ                       PIC 99.                ECSEXT01
   208     12  DE-ACC-GPCD                       PIC XX.                ECSEXT01
   209     12  DE-IG                             PIC X.                 ECSEXT01
   210     12  DE-REMIT-TO                       PIC XX.                ECSEXT01
   211*    12  DE-MEMBER-NO                      PIC X(12).             ECSEXT01
   212     12  DE-MEMBER-NO.                                            ECSEXT01
   213         16  DE-MASTER-POLICY              PIC X(06).             ECSEXT01
   214         16  DE-ZIP                        PIC 9(05)    COMP-3.   ECSEXT01
   215         16  FILLER                        PIC X(03).             ECSEXT01
   216     12  DE-LN-OFFICER                     PIC XXX.               ECSEXT01
   217                                                                  ECSEXT01
   218     12  DE-AUTO-GEND-IND                  PIC X.                 ECSEXT01
   219         88  DE-AUTO-GEND-REINS            VALUE 'R'.             ECSEXT01
   220                                                                  ECSEXT01
   221     12  DE-ENTRY-STATUS                   PIC X.                 ECSEXT01
   222     12  DE-ENTRY-DTE                      PIC 9(11)      COMP-3. ECSEXT01
   223                                                                  ECSEXT01
   224     12  DE-REI-AREA.                                             ECSEXT01
   225         16  DE-REI-COMP.                                         ECSEXT01
   226             20  DE-REINCO                 PIC XXX.               ECSEXT01
   227             20  DE-REINCO-SUB             PIC XXX.               ECSEXT01
   228         16  DE-REI-LFAMT                  PIC S9(9)V99   COMP-3. ECSEXT01
   229         16  DE-REI-LFPRM                  PIC S9(7)V99   COMP-3. ECSEXT01
   230         16  DE-REI-LFRFND                 PIC S9(7)V99   COMP-3. ECSEXT01
   231         16  DE-REI-AHAMT                  PIC S9(7)V99   COMP-3. ECSEXT01
   232         16  DE-REI-AHPRM                  PIC S9(7)V99   COMP-3. ECSEXT01
   233         16  DE-REI-AHRFND                 PIC S9(7)V99   COMP-3. ECSEXT01
   234         16  DE-REI-CNAMT                  PIC S9(9)V99   COMP-3. ECSEXT01
   235                                                                  ECSEXT01
   236     12  DE-MOB-NET-TOT-FEES               PIC S9(7)V99   COMP-3.
   237     12  FILLER REDEFINES DE-MOB-NET-TOT-FEES.
   238         16  DE-IU-RATE-UP                 PIC S9(5)V99 COMP-3.
   239         16  F                             PIC X.
   240*    12  FILLER                            PIC X(5).              ECSEXT01
   241                                                                  ECSEXT01
   242     12  DE-BILLED-AREA.                                          ECSEXT01
* Micro Focus Server Express         V5.1 revision 000 06-Oct-15 17:18 Page   6
* ECS025.cbl (/apps/prod/cid1p/copy/ECSEXT01)
   243         16  DE-GL-INTERFACE-CODES.                               ECSEXT01
   244             20  DE-GL-CODES               PIC X  OCCURS 10 TIMES.ECSEXT01
   245                                                                  ECSEXT01
   246         16  DE-BILL-SW                    PIC X.                 ECSEXT01
   247             88  DE-RECORD-ON-HOLD            VALUE 'H'.          ECSEXT01
   248             88  DE-RECORD-RETURNED           VALUE 'R'.          ECSEXT01
   249             88  DE-RECORD-ENDORSED           VALUE 'E'.          ECSEXT01
   250             88  DE-OVERRIDE-LIFE             VALUE 'L'.          ECSEXT01
   251             88  DE-OVERRIDE-AH               VALUE 'A'.          ECSEXT01
   252             88  DE-OVERRIDE-BOTH             VALUE 'B'.          ECSEXT01
   253                                                                  ECSEXT01
   254         16  DE-REFUND-SW                  PIC X.                 ECSEXT01
   255             88  DE-REFUND-CREATED            VALUE 'Y'.          ECSEXT01
   256                                                                  ECSEXT01
   257         16  DE-BILLED-LFPRM               PIC S9(7)V99   COMP-3. ECSEXT01
   258         16  DE-BILLED-LFRFND              PIC S9(7)V99   COMP-3. ECSEXT01
   259         16  DE-BILLED-AHPRM               PIC S9(7)V99   COMP-3. ECSEXT01
   260         16  DE-BILLED-AHRFND              PIC S9(7)V99   COMP-3. ECSEXT01
   261                                                                  ECSEXT01
   262         16  DE-GA-BILL-STATUS             PIC X  OCCURS 5 TIMES. ECSEXT01
   263*            88  DE-NO-PRE-BILL-GA            VALUE ' '.          ECSEXT01
   264*            88  DE-BILLED-GA                 VALUE 'B'.          ECSEXT01
   265                                                                  ECSEXT01
   266     12  DE-BILL-STATUS                    PIC X.                 ECSEXT01
   267         88  DE-NO-PRE-BILL                   VALUE ' '.          ECSEXT01
   268         88  DE-BILLED                        VALUE 'B'.          ECSEXT01
   269         88  DE-REVERSE                       VALUE 'R'.          ECSEXT01
   270                                                                  ECSEXT01
   271     12  DE-REVERSE-REASONS.                                      ECSEXT01
   272         16  DE-REVERSE-REASON-1           PIC X.                 ECSEXT01
   273         16  DE-REVERSE-REASON-2           PIC X.                 ECSEXT01
   274     12  DE-CANCEL-REASON                  PIC X.
   275                                                                  ECSEXT01
   276     12  DE-RECALC-CODE                    PIC X.                 ECSEXT01
   277     12  DE-RECALC-TYPE                    PIC X.                 ECSEXT01
   278                                                                  ECSEXT01
   279     12  DE-CHARGEBACK-CODES.                                     ECSEXT01
   280         16  DE-LF-COMM-CHARGEBACK         PIC X.                 ECSEXT01
   281             88  DE-NO-LF-CHARGEBACK          VALUE 'N'.          ECSEXT01
   282         16  DE-AH-COMM-CHARGEBACK         PIC X.                 ECSEXT01
   283             88  DE-NO-AH-CHARGEBACK          VALUE 'N'.          ECSEXT01
   284                                                                  ECSEXT01
   285     12  DE-UNDERWRITING-CODE              PIC X.                 ECSEXT01
   286         88  DE-POLICY-UNDERWRITTEN           VALUE 'Y'.          ECSEXT01
   287                                                                  ECSEXT01
   288     12  DE-NCL-POOL-CODE                  PIC XXX.               ECSEXT01
   289     12  FILLER REDEFINES DE-NCL-POOL-CODE.
   290         16  DE-LOAN-TERM                  PIC S999 COMP-3.
   291         16  FILLER                        PIC X.
   292                                                                  ECSEXT01
   293****************************************************************  ECSEXT01
   294**** CLAIM EXTRACT AND RESERVE EXTRACT IS REDEFINED AT THIS POINT ECSEXT01
   295****************************************************************  ECSEXT01
   296     12  DE-COMM-LEVELS.                                          ECSEXT01
   297         16  DE-AGT-LEVELS     OCCURS  10  TIMES.                 ECSEXT01
   298             20  DE-AGT.                                          ECSEXT01
   299                 24  DE-AGT-PREFIX         PIC X(4).              ECSEXT01
   300                 24  DE-AGT-PRIME          PIC X(6).              ECSEXT01
* Micro Focus Server Express         V5.1 revision 000 06-Oct-15 17:18 Page   7
* ECS025.cbl (/apps/prod/cid1p/copy/ECSEXT01)
   301             20  DE-AGT-TYPE               PIC X.                 ECSEXT01
   302             20  DE-L-PC                   PIC SV9(5)     COMP-3. ECSEXT01
   303             20  DE-A-PC                   PIC SV9(5)     COMP-3. ECSEXT01
   304                                                                  ECSEXT01
   305     12  DE-PROC-DT                        PIC 9(11)      COMP-3. ECSEXT01
   306****************************************************************  ECSEXT01
   307*******                 CLAIM EXTRACT                      *****  ECSEXT01
   308****************************************************************  ECSEXT01
   309     02 DE-CLAIM-EXTRACT     REDEFINES     DETAIL-FILE.           ECSEXT01
   310     12  FILLER                            PIC X(334).            ECSEXT01
   311     12  DE-TYPE                           PIC X.                 ECSEXT01
   312         88  DE-DTH                           VALUE '1'.          ECSEXT01
   313         88  DE-AH                            VALUE '2'.          ECSEXT01
   314         88  DE-OB-DTH                        VALUE '3'.          ECSEXT01
   315         88  DE-OB-AH                         VALUE '4'.          ECSEXT01
   316         88  DE-DEATH                         VALUES '1' '3'.     ECSEXT01
   317         88  DE-DISABILITY                    VALUES '2' '4'.     ECSEXT01
   318                                                                  ECSEXT01
   319     12  DE-CLAIM-AMT                      PIC S9(9)V99   COMP-3. ECSEXT01
   320     12  DE-REI-CLAIM-AMT                  PIC S9(9)V99   COMP-3. ECSEXT01
   321                                                                  ECSEXT01
   322     12  DE-INCUR                          PIC 9(11)      COMP-3. ECSEXT01
   323     12  DE-REPORTED.                                             ECSEXT01
   324         16  DE-RPT-YR                     PIC 99.                ECSEXT01
   325         16  DE-RPT-MO                     PIC 99.                ECSEXT01
   326         16  DE-RPT-DA                     PIC 99.                ECSEXT01
   327     12  DE-PAY                            PIC 9(11)      COMP-3. ECSEXT01
   328     12  DE-PAID-TO                        PIC 9(11)      COMP-3. ECSEXT01
   329                                                                  ECSEXT01
   330     12  DE-CNUM                           PIC X(7).              ECSEXT01
   331     12  DE-CHECK                          PIC X(7).              ECSEXT01
   332     12  DE-PMT-TRAILER-SEQ                PIC S9(4)       COMP.  ECSEXT01
   333     12  DE-DAYS-DISAB                     PIC 999.               ECSEXT01
   334     12  DE-CLM-AGE                        PIC 99.                ECSEXT01
   335     12  DE-PAY-CODE                       PIC X.                 ECSEXT01
   336         88  DE-PARTIAL-PAYMENT               VALUE 'P'.          ECSEXT01
   337         88  DE-FINAL-PAYMENT                 VALUE 'F'.          ECSEXT01
   338         88  DE-LUMP-SUM-PAYMENT              VALUE 'S'.          ECSEXT01
   339         88  DE-ADDITIONAL-PAYMENT            VALUE 'X'.          ECSEXT01
   340         88  DE-CHARGEABLE-EXPENSE            VALUE 'E'.          ECSEXT01
   341         88  DE-NON-CHARGEABLE-EXPENSE        VALUE 'E'.          ECSEXT01
   342         88  DE-VOIDED-PAYMENT                VALUE 'V'.          ECSEXT01
   343                                                                  ECSEXT01
   344     12  DE-CLM-ERR                        PIC XX.                ECSEXT01
   345                                                                  ECSEXT01
   346     12  DE-ACC-NAME                       PIC X(30).             ECSEXT01
   347     12  DE-ACC-EXP-DTE                    PIC 9(11)  COMP-3.     ECSEXT01
   348     12  DE-ACC-EFF-DTE                    PIC 9(11)  COMP-3.     ECSEXT01
   349     12  FILLER                            PIC XX.                ECSEXT01
   350     12  DE-LOAN-OFFICER                   PIC XXX.               ECSEXT01
   351                                                                  ECSEXT01
   352     12  DE-LOAN-TYPE                      PIC X(02).             ECSEXT01
   353     12  DE-BENEFICIARY                    PIC X(10).
   354     12  filler redefines de-beneficiary.
   355         16  de-birth-date                 pic 9(11)  comp-3.
   356         16  f                             pic x(4).
   357     12  DE-LOAN-CLASS                     PIC X(02).             ECSEXT01
   358     12  DE-LOSS-CODE                      PIC X(06).             ECSEXT01
* Micro Focus Server Express         V5.1 revision 000 06-Oct-15 17:18 Page   8
* ECS025.cbl (/apps/prod/cid1p/copy/ECSEXT01)
   359     12  DE-ASSOCIATES                     PIC X(01).             ECSEXT01
   360     12  DE-LEGAL-STATE                    PIC X(02).             ECSEXT01
   361     12  DE-CLM-CAUSE                      PIC X(6).              ECSEXT01
   362     12  DE-CLM-CLASS                      PIC XX.
   363     12  DE-CLM-DEV                        PIC XXX.
   364     12  DE-XYCOR-CLAIM-NO                 PIC X(9).
   365     12  de-xycor-cert-seq                 pic x(3).
   366     12  DE-XYCOR-CHECK-NO                 PIC X(8).
   367     12  DE-XYCOR-ACTION-CD                PIC XXX.
   368     12  DE-XYCOR-STATUS                   PIC X.
   369     12  FILLER                            PIC X(4).              ECSEXT01
   370                                                                  ECSEXT01
   371     12  DE-CLM-PROC-DT                    PIC 9(11)  COMP-3.        CL**2
   372                                                                  ECSEXT01
   373****************************************************************  ECSEXT01
   374*******               RESERVE EXTRACT                      *****  ECSEXT01
   375****************************************************************  ECSEXT01
   376     02 DE-RESERVE-EXTRACT     REDEFINES     DETAIL-FILE.         ECSEXT01
   377     12  FILLER                            PIC X(334).            ECSEXT01
   378                                                                  ECSEXT01
   379     12  DE-RESERVE-TYPE                   PIC X.                 ECSEXT01
   380         88  DE-LIFE-RSV                      VALUE '1' '3'.      ECSEXT01
   381         88  DE-AH-RSV                        VALUE '2' '4'.      ECSEXT01
   382                                                                  ECSEXT01
   383     12  DE-IBNR                           PIC S9(7)V99   COMP-3. ECSEXT01
   384     12  DE-PAYCUR                         PIC S9(7)V99   COMP-3. ECSEXT01
   385     12  DE-FUTRSV                         PIC S9(7)V99   COMP-3. ECSEXT01
   386                                                                  ECSEXT01
   387     12  DE-CLMNO                          PIC X(7).              ECSEXT01
   388                                                                  ECSEXT01
   389     12  DE-RSV-INCUR                      PIC 9(11)      COMP-3. ECSEXT01
   390     12  DE-RSV-REPORTED.                                         ECSEXT01
   391         16  DE-RSV-RPT-YR                 PIC 99.                ECSEXT01
   392         16  DE-RSV-RPT-MO                 PIC 99.                ECSEXT01
   393         16  DE-RSV-RPT-DA                 PIC 99.                ECSEXT01
   394     12  DE-RSV-PAYTO                      PIC 9(11)      COMP-3. ECSEXT01
   395                                                                  ECSEXT01
   396     12  DE-REI-IBNR                       PIC S9(7)V99   COMP-3. ECSEXT01
   397     12  DE-REI-PAYCUR                     PIC S9(7)V99   COMP-3. ECSEXT01
   398     12  DE-REI-FUTRSV                     PIC S9(7)V99   COMP-3. ECSEXT01
   399                                                                  ECSEXT01
   400     12  DE-RSV-ACC-NAME                   PIC X(30).             ECSEXT01
   401     12  DE-ACC-EXP-DTE-RSV                PIC 9(11)      COMP-3. ECSEXT01
   402     12  DE-ACC-EFF-DTE-RSV                PIC 9(11)      COMP-3. ECSEXT01
   403                                                                  ECSEXT01
   404     12  DE-MANUAL-RSV-SWITCH              PIC X.                 ECSEXT01
   405                                                                  ECSEXT01
   406     12  DE-RATE-CLASS                     PIC XX.
   407     12  DE-DEV-CODE                       PIC XXX.
   408     12  DE-RSV-REM-TERM                   PIC S999       COMP-3.
   409     12  DE-RSV-REM-BENEFIT                PIC S9(9)V99   COMP-3.
   410     12  FILLER                            PIC X(58).             ECSEXT01
   411                                                                  ECSEXT01
   412     12  DE-RSV-PROC-DT                    PIC 9(11)  COMP-3.        CL**2
   413******************************************************************ECSEXT01
   414                                                                  ECS025
* Micro Focus Server Express         V5.1 revision 000 06-Oct-15 17:18 Page   9
* ECS025.cbl
   416 FD  AM-MSTR.                                                     ECS025
   417                                                                  ECS025
*  418                            COPY ERCACCT.                         ECS025
   419******************************************************************04/19/98
   420*                                                                *ERCACCT
   421*                                                                *ERCACCT
   422*                            ERCACCT                             *   LV031
   423*           COPYBOOK REVIEWED FOR YEAR 2000 COMPLIANCE               CL*31
   424*                            VMOD=2.031                          *ERCACCT
   425*                                                                *ERCACCT
   426*   CREDIT SYSTEM ACCOUNT MASTER FILE                            *ERCACCT
   427*                                                                *ERCACCT
   428*   THIS COPYBOOK IS USED FOR BOTH THE ONLINE AND BATCH          *ERCACCT
   429*   VSAM ACCOUNT MASTER FILES.                                   *ERCACCT
   430*                                                                *ERCACCT
   431*   FILE DESCRIPTION = ACCOUNT OR PRODUCER FILES                 *ERCACCT
   432*                                                                *ERCACCT
   433*   FILE TYPE = VSAM,KSDS                                        *ERCACCT
   434*   RECORD SIZE = 2000  RECFORM = FIX                            *ERCACCT
   435*                                                                *ERCACCT
   436*   BASE CLUSTER NAME = ERACCT                    RKP=2,LEN=26   *ERCACCT
   437*       ALTERNATE PATH1 = ERACCT2 (ALT GROUPING) RKP=28,LEN=26   *ERCACCT
   438*                                                                *ERCACCT
   439*   LOG = NO                                                     *ERCACCT
   440*   SERVREQ = BROWSE, DELETE, UPDATE, NEWREC                     *ERCACCT
   441*                                                                *ERCACCT
   442*                                                                *ERCACCT
   443******************************************************************ERCACCT
   444*                   C H A N G E   L O G
   445*
   446* CHANGES ARE MARKED BY THE CHANGE EFFECTIVE DATE.
   447*-----------------------------------------------------------------
   448*  CHANGE   CHANGE REQUEST PGMR  DESCRIPTION OF CHANGE
   449* EFFECTIVE    NUMBER
   450*-----------------------------------------------------------------
   451* 102004    2003031400002  PEMA  ADD NEW STATUS CODE
   452* 092705    2005050300006  PEMA  ADD SPP LEASES
   453* 022808    2007083100002  PEMA  ADD FREEZE STATUS
   454* 011410  CR2009050700003  PEMA  ADD SPP DEALER DIRECT
   455* 030211  CR2010012100001  PEMA  ADD EMAILS FROM RDS
   456* 031811  CR2011012700001  PEMA  ADD ACCT STATUS S - SUSPENDED
   457* 101711  CR2011092000001  PEMA  ADD UNEARNED FACTOR STATE FOR DCC
   458******************************************************************
   459                                                                  ERCACCT
   460 01  ACCOUNT-MASTER.                                              ERCACCT
   461     12  AM-RECORD-ID                      PIC XX.                ERCACCT
   462         88  VALID-AM-ID                      VALUE 'AM'.         ERCACCT
   463                                                                  ERCACCT
   464     12  AM-CONTROL-PRIMARY.                                      ERCACCT
   465         16  AM-COMPANY-CD                 PIC X.                 ERCACCT
   466         16  AM-MSTR-CNTRL.                                       ERCACCT
   467             20  AM-CONTROL-A.                                    ERCACCT
   468                 24  AM-CARRIER            PIC X.                 ERCACCT
   469                 24  AM-GROUPING.                                 ERCACCT
   470                     28 AM-GROUPING-PREFIX PIC XXX.               ERCACCT
   471                     28 AM-GROUPING-PRIME  PIC XXX.               ERCACCT
   472                 24  AM-STATE              PIC XX.                ERCACCT
   473                 24  AM-ACCOUNT.                                  ERCACCT
* Micro Focus Server Express         V5.1 revision 000 06-Oct-15 17:18 Page  10
* ECS025.cbl (/apps/prod/cid1p/copy/ERCACCT)
   474                     28  AM-ACCOUNT-PREFIX PIC X(4).              ERCACCT
   475                     28  AM-ACCOUNT-PRIME  PIC X(6).              ERCACCT
   476             20  AM-CNTRL-1   REDEFINES   AM-CONTROL-A            ERCACCT
   477                                           PIC X(19).             ERCACCT
   478             20  AM-CNTRL-B.                                      ERCACCT
   479                 24  AM-EXPIRATION-DT      PIC XX.                ERCACCT
   480                 24  FILLER                PIC X(4).              ERCACCT
   481             20  AM-CNTRL-2 REDEFINES AM-CNTRL-B.                 ERCACCT
   482                 24  AM-EXPIRE-DT          PIC 9(11)  COMP-3.     ERCACCT
   483                                                                  ERCACCT
   484     12  AM-CONTROL-BY-VAR-GRP.                                   ERCACCT
   485         16  AM-COMPANY-CD-A1              PIC X.                 ERCACCT
   486         16  AM-VG-CARRIER                 PIC X.                 ERCACCT
   487         16  AM-VG-GROUPING                PIC X(6).              ERCACCT
   488         16  AM-VG-STATE                   PIC XX.                ERCACCT
   489         16  AM-VG-ACCOUNT                 PIC X(10).             ERCACCT
   490         16  AM-VG-DATE.                                          ERCACCT
   491             20  AM-VG-EXPIRATION-DT       PIC XX.                ERCACCT
   492             20  FILLER                    PIC X(4).              ERCACCT
   493         16  AM-VG-EXP-DATE REDEFINES AM-VG-DATE                  ERCACCT
   494                                           PIC 9(11)      COMP-3. ERCACCT
   495     12  FILLER REDEFINES AM-CONTROL-BY-VAR-GRP.
   496         16  FILLER                        PIC X(10).
   497         16  AM-VG-KEY3.
   498             20  AM-VG3-ACCOUNT            PIC X(10).
   499             20  AM-VG3-EXP-DT             PIC XX.
   500         16  FILLER                        PIC X(4).
   501     12  AM-MAINT-INFORMATION.                                    ERCACCT
   502         16  AM-LAST-MAINT-DT              PIC XX.                ERCACCT
   503         16  AM-LAST-MAINT-HHMMSS          PIC S9(7)      COMP-3. ERCACCT
   504         16  AM-LAST-MAINT-USER            PIC X(4).              ERCACCT
   505         16  FILLER                        PIC XX.                ERCACCT
   506                                                                  ERCACCT
   507     12  AM-EFFECTIVE-DT                   PIC XX.                ERCACCT
   508     12  AM-EFFECT-DT                      PIC 9(11)      COMP-3. ERCACCT
   509                                                                  ERCACCT
   510     12  AM-PREV-DATES  COMP-3.                                   ERCACCT
   511         16  AM-PREV-EXP-DT                PIC 9(11).             ERCACCT
   512         16  AM-PREV-EFF-DT                PIC 9(11).             ERCACCT
   513                                                                  ERCACCT
   514     12  AM-REPORT-CODE-1                  PIC X(10).             ERCACCT
   515     12  AM-REPORT-CODE-2                  PIC X(10).             ERCACCT
   516                                                                  ERCACCT
   517     12  AM-CITY-CODE                      PIC X(4).              ERCACCT
   518     12  AM-COUNTY-PARISH                  PIC X(6).              ERCACCT
   519                                                                  ERCACCT
   520     12  AM-NAME                           PIC X(30).             ERCACCT
   521     12  AM-PERSON                         PIC X(30).             ERCACCT
   522     12  AM-ADDRS                          PIC X(30).             ERCACCT
   523     12  AM-CITY.
   524         16  AM-ADDR-CITY                  PIC X(28).
   525         16  AM-ADDR-STATE                 PIC XX.
   526     12  AM-ZIP.                                                  ERCACCT
   527         16  AM-ZIP-PRIME.                                        ERCACCT
   528             20  AM-ZIP-PRI-1ST            PIC X.                 ERCACCT
   529                 88  AM-CANADIAN-POST-CODE    VALUE 'A' THRU 'Z'. ERCACCT
   530             20  FILLER                    PIC X(4).              ERCACCT
   531         16  AM-ZIP-PLUS4                  PIC X(4).              ERCACCT
* Micro Focus Server Express         V5.1 revision 000 06-Oct-15 17:18 Page  11
* ECS025.cbl (/apps/prod/cid1p/copy/ERCACCT)
   532     12  AM-CANADIAN-POSTAL-CODE  REDEFINES  AM-ZIP.              ERCACCT
   533         16  AM-CAN-POSTAL-1               PIC XXX.               ERCACCT
   534         16  AM-CAN-POSTAL-2               PIC XXX.               ERCACCT
   535         16  FILLER                        PIC XXX.               ERCACCT
   536     12  AM-TEL-NO.                                               ERCACCT
   537         16  AM-AREA-CODE                  PIC 999.               ERCACCT
   538         16  AM-TEL-PRE                    PIC 999.               ERCACCT
   539         16  AM-TEL-NBR                    PIC 9(4).              ERCACCT
   540     12  AM-TEL-LOC                        PIC X.                 ERCACCT
   541         88  AM-TEL-AT-HOME                   VALUE 'H'.          ERCACCT
   542         88  AM-TEL-AT-BUSINESS               VALUE 'B'.          ERCACCT
   543                                                                  ERCACCT
   544     12  AM-COMM-STRUCTURE.                                       ERCACCT
   545         16  AM-DEFN-1.                                           ERCACCT
   546             20  AM-AGT-COMMS       OCCURS 10 TIMES.              ERCACCT
   547                 24  AM-AGT.                                      ERCACCT
   548                     28  AM-AGT-PREFIX     PIC X(4).              ERCACCT
   549                     28  AM-AGT-PRIME      PIC X(6).              ERCACCT
   550                 24  AM-COM-TYP            PIC X.                 ERCACCT
   551                 24  AM-L-COM              PIC SV9(5)     COMP-3. ERCACCT
   552                 24  AM-J-COM              PIC SV9(5)     COMP-3. ERCACCT
   553                 24  AM-A-COM              PIC SV9(5)     COMP-3. ERCACCT
   554                 24  AM-RECALC-LV-INDIC    PIC X.                 ERCACCT
   555                 24  AM-RETRO-LV-INDIC     PIC X.                 ERCACCT
   556                 24  AM-GL-CODES           PIC X.                 ERCACCT
   557                 24  AM-COMM-CHARGEBACK    PIC 9(02).             ERCACCT
   558                 24  FILLER                PIC X(01).             ERCACCT
   559         16  AM-DEFN-2   REDEFINES   AM-DEFN-1.                   ERCACCT
   560             20  AM-COM-TBLS        OCCURS 10 TIMES.              ERCACCT
   561                 24  FILLER                PIC X(11).             ERCACCT
   562                 24  AM-L-COMA             PIC XXX.               ERCACCT
   563                 24  AM-J-COMA             PIC XXX.               ERCACCT
   564                 24  AM-A-COMA             PIC XXX.               ERCACCT
   565                 24  FILLER                PIC X(6).              ERCACCT
   566                                                                  ERCACCT
   567     12  AM-COMM-CHANGE-STATUS             PIC X.                 ERCACCT
   568         88  AM-COMMISSIONS-CHANGED           VALUE '*'.          ERCACCT
   569                                                                  ERCACCT
   570     12  AM-CSR-CODE                       PIC X(4).              ERCACCT
   571                                                                  ERCACCT
   572     12  AM-BILLING-STATUS                 PIC X.                 ERCACCT
   573         88  AM-ACCOUNT-BILLED                VALUE 'B'.          ERCACCT
   574         88  AM-ACCOUNT-NOT-BILLED            VALUE ' '.          ERCACCT
   575     12  AM-AUTO-REFUND-SW                 PIC X.                 ERCACCT
   576         88  AUTO-REFUNDS-USED                VALUE 'Y'.          ERCACCT
   577         88  AUTO-REFUNDS-NOT-USED            VALUE 'N' ' '.      ERCACCT
   578     12  AM-GPCD                           PIC 99.                ERCACCT
   579     12  AM-IG                             PIC X.                 ERCACCT
   580         88  AM-HAS-INDIVIDUAL                VALUE '1'.          ERCACCT
   581         88  AM-HAS-GROUP                     VALUE '2'.          ERCACCT
   582     12  AM-STATUS                         PIC X.                 ERCACCT
   583         88  AM-ACCOUNT-ACTIVE                VALUE '0'.          ERCACCT
   584         88  AM-ACCOUNT-INACTIVE              VALUE '1'.          ERCACCT
   585         88  AM-ACCOUNT-TRANSFERRED           VALUE '2'.          ERCACCT
   586         88  AM-ACCOUNT-CANCELLED             VALUE '3'.
   587         88  AM-ACCOUNT-FROZEN                VALUE '4'.
   588         88  AM-ACCOUNT-SUSPENDED             VALUE '5'.
   589     12  AM-REMIT-TO                       PIC 99.                ERCACCT
* Micro Focus Server Express         V5.1 revision 000 06-Oct-15 17:18 Page  12
* ECS025.cbl (/apps/prod/cid1p/copy/ERCACCT)
   590     12  AM-ID-NO                          PIC X(11).             ERCACCT
   591                                                                  ERCACCT
   592     12  AM-CAL-TABLE                      PIC XX.                ERCACCT
   593     12  AM-LF-DEVIATION                   PIC XXX.               ERCACCT
   594     12  AM-AH-DEVIATION                   PIC XXX.               ERCACCT
   595     12  AM-LF-DEVIATION-PCT               PIC S9V9(6)    COMP-3. ERCACCT
   596     12  AM-AH-DEVIATION-PCT               PIC S9V9(6)    COMP-3. ERCACCT
   597     12  AM-LF-OB-RATE                     PIC S99V9(5)   COMP-3. ERCACCT
   598     12  AM-AH-OB-RATE                     PIC S99V9(5)   COMP-3. ERCACCT
   599     12  AM-LF-OB-RATE-JNT                 PIC S99V9(5)   COMP-3. ERCACCT
   600     12  AM-AH-OB-RATE-JNT                 PIC S99V9(5)   COMP-3. ERCACCT
   601                                                                  ERCACCT
   602     12  AM-USER-FIELDS.                                          ERCACCT
   603         16  AM-FLD-1                      PIC XX.                ERCACCT
   604         16  AM-FLD-2                      PIC XX.                ERCACCT
   605         16  AM-FLD-3                      PIC XX.                ERCACCT
   606         16  AM-FLD-4                      PIC XX.                ERCACCT
   607         16  AM-FLD-5                      PIC XX.                ERCACCT
   608                                                                  ERCACCT
   609     12  AM-1ST-PROD-DATE.                                        ERCACCT
   610         16  AM-1ST-PROD-YR                PIC XX.                ERCACCT
   611         16  AM-1ST-PROD-MO                PIC XX.                ERCACCT
   612         16  AM-1ST-PROD-DA                PIC XX.                ERCACCT
   613     12  AM-ANNIVERSARY-DATE               PIC 9(11)  COMP-3.     ERCACCT
   614     12  AM-CERTS-PURGED-DATE.                                    ERCACCT
   615         16  AM-PUR-YR                     PIC XX.                ERCACCT
   616         16  AM-PUR-MO                     PIC XX.                ERCACCT
   617         16  AM-PUR-DA                     PIC XX.                ERCACCT
   618     12  AM-HI-CERT-DATE                   PIC 9(11)  COMP-3.     ERCACCT
   619     12  AM-LO-CERT-DATE                   PIC 9(11)  COMP-3.     ERCACCT
   620     12  AM-ENTRY-DATE                     PIC 9(11)  COMP-3.     ERCACCT
   621     12  AM-INACTIVE-DATE.                                        ERCACCT
   622         16  AM-INA-MO                     PIC 99.                ERCACCT
   623         16  AM-INA-DA                     PIC 99.                ERCACCT
   624         16  AM-INA-YR                     PIC 99.                ERCACCT
   625     12  AM-AR-HI-CERT-DATE                PIC XX.                ERCACCT
   626                                                                  ERCACCT
   627     12  AM-LF-PSI-FACTOR                  PIC S9V9(6)    COMP-3. ERCACCT
   628     12  AM-AH-PSI-FACTOR                  PIC S9V9(6)    COMP-3. ERCACCT
   629                                                                  ERCACCT
   630     12  AM-OB-PAYMENT-MODE                PIC X.                 ERCACCT
   631         88  AM-OB-PAID-MONTHLY               VALUE 'M' ' '.      ERCACCT
   632         88  AM-OB-PAID-QUARTERLY             VALUE 'Q'.          ERCACCT
   633         88  AM-OB-PAID-SEMI-ANNUALLY         VALUE 'S'.          ERCACCT
   634         88  AM-OB-PAID-ANNUALLY              VALUE 'A'.          ERCACCT
   635                                                                  ERCACCT
   636     12  AM-AH-ONLY-INDICATOR              PIC X.                 ERCACCT
   637         88  AM-AH-ONLY-ALLOWED               VALUE 'Y' ' '.      ERCACCT
   638         88  AM-NO-AH-ONLY                    VALUE 'N'.          ERCACCT
   639                                                                  ERCACCT
   640     12  AM-EDIT-LOAN-OFC                  PIC X(01).             ERCACCT
   641                                                                  ERCACCT
   642     12  AM-OVER-SHORT.                                           ERCACCT
   643         16 AM-OVR-SHT-AMT                 PIC S999V99    COMP-3. ERCACCT
   644         16 AM-OVR-SHT-PCT                 PIC S9V9(4)    COMP-3. ERCACCT
   645                                                                  ERCACCT
   646     12  AM-DCC-PRODUCT-CODE               PIC XXX.
   647     12  AM-DCC-CLP-STATE                  PIC XX.
* Micro Focus Server Express         V5.1 revision 000 06-Oct-15 17:18 Page  13
* ECS025.cbl (/apps/prod/cid1p/copy/ERCACCT)
   648                                                                  ERCACCT
   649     12  AM-RECALC-COMM                    PIC X.                 ERCACCT
   650     12  AM-RECALC-REIN                    PIC X.                 ERCACCT
   651                                                                  ERCACCT
   652     12  AM-REI-TABLE                      PIC XXX.               ERCACCT
   653     12  AM-REI-ET-LF                      PIC X.                 ERCACCT
   654     12  AM-REI-ET-AH                      PIC X.                 ERCACCT
   655     12  AM-REI-PE-LF                      PIC X.                 ERCACCT
   656     12  AM-REI-PE-AH                      PIC X.                 ERCACCT
   657     12  AM-REI-PRT-ST                     PIC X.                 ERCACCT
   658     12  AM-REI-FEE-LF                     PIC S9V9999    COMP-3. ERCACCT
   659     12  AM-REI-FEE-AH                     PIC S9V9999    COMP-3. ERCACCT
   660     12  AM-REI-LF-TAX                     PIC S9V9999    COMP-3. ERCACCT
   661     12  AM-REI-GROUP-A                    PIC X(6).              ERCACCT
   662     12  AM-REI-MORT                       PIC X(4).              ERCACCT
   663     12  AM-REI-PRT-OW                     PIC X.                 ERCACCT
   664     12  AM-REI-PR-PCT                     PIC S9V9999    COMP-3. ERCACCT
   665     12  AM-REI-78-PCT                     PIC S9V9999    COMP-3. ERCACCT
   666     12  AM-REI-AH-TAX                     PIC S9V9999    COMP-3. ERCACCT
   667     12  AM-REI-GROUP-B                    PIC X(6).              ERCACCT
   668                                                                  ERCACCT
   669     12  AM-TRUST-TYPE                     PIC X(2).              ERCACCT
   670                                                                  ERCACCT
   671     12  AM-EMPLOYER-STMT-USED             PIC X.                 ERCACCT
   672     12  AM-GROUPED-CHECKS-Y-N             PIC X.                 ERCACCT
   673                                                                  ERCACCT
   674     12  AM-STD-AH-TYPE                    PIC XX.                ERCACCT
   675     12  AM-EARN-METHODS.                                         ERCACCT
   676         16  AM-EARN-METHOD-R              PIC X.                 ERCACCT
   677             88 AM-REF-RL-R78                 VALUE 'R'.          ERCACCT
   678             88 AM-REF-RL-PR                  VALUE 'P'.          ERCACCT
   679             88 AM-REF-RL-MEAN                VALUE 'M'.          ERCACCT
   680             88 AM-REF-RL-ANTICIPATION        VALUE 'A'.          ERCACCT
   681         16  AM-EARN-METHOD-L              PIC X.                 ERCACCT
   682             88 AM-REF-LL-R78                 VALUE 'R'.          ERCACCT
   683             88 AM-REF-LL-PR                  VALUE 'P'.          ERCACCT
   684             88 AM-REF-LL-MEAN                VALUE 'M'.          ERCACCT
   685             88 AM-REF-LL-ANTICIPATION        VALUE 'A'.          ERCACCT
   686         16  AM-EARN-METHOD-A              PIC X.                 ERCACCT
   687             88 AM-REF-AH-R78                 VALUE 'R'.          ERCACCT
   688             88 AM-REF-AH-PR                  VALUE 'P'.          ERCACCT
   689             88 AM-REF-AH-MEAN                VALUE 'M'.          ERCACCT
   690             88 AM-REF-AH-ANTICIPATION        VALUE 'A'.          ERCACCT
   691             88 AM-REF-AH-CALIF-SPEC          VALUE 'C'.          ERCACCT
   692             88 AM-REF-AH-NET                 VALUE 'N'.          ERCACCT
   693                                                                  ERCACCT
   694     12  AM-TOL-PREM                       PIC S999V99    COMP-3. ERCACCT
   695     12  AM-TOL-REF                        PIC S999V99    COMP-3. ERCACCT
   696     12  AM-TOL-CLM                        PIC S999V99    COMP-3. ERCACCT
   697                                                                  ERCACCT
   698     12  AM-RET-Y-N                        PIC X.                 ERCACCT
   699     12  AM-RET-P-E                        PIC X.                 ERCACCT
   700     12  AM-LF-RET                         PIC S9V9999    COMP-3. ERCACCT
   701     12  AM-AH-RET                         PIC S9V9999    COMP-3. ERCACCT
   702     12  AM-RET-GRP                        PIC X(6).              ERCACCT
   703     12  AM-RETRO-POOL  REDEFINES  AM-RET-GRP.                    ERCACCT
   704         16  AM-POOL-PRIME                 PIC XXX.               ERCACCT
   705         16  AM-POOL-SUB                   PIC XXX.               ERCACCT
* Micro Focus Server Express         V5.1 revision 000 06-Oct-15 17:18 Page  14
* ECS025.cbl (/apps/prod/cid1p/copy/ERCACCT)
   706     12  AM-RETRO-EARNINGS.                                       ERCACCT
   707         16  AM-RET-EARN-R                 PIC X.                 ERCACCT
   708         16  AM-RET-EARN-L                 PIC X.                 ERCACCT
   709         16  AM-RET-EARN-A                 PIC X.                 ERCACCT
   710     12  AM-RET-ST-TAX-USE                 PIC X.                 ERCACCT
   711         88  CHARGE-ST-TAXES-ON-RETRO         VALUE 'Y' 'E' 'P'.  ERCACCT
   712         88  TAXES-NOT-IN-RETRO               VALUE 'N' ' '.      ERCACCT
   713     12  AM-RETRO-BEG-EARNINGS.                                   ERCACCT
   714         16  AM-RET-BEG-EARN-R             PIC X.                 ERCACCT
   715         16  AM-RET-BEG-EARN-L             PIC X.                 ERCACCT
   716         16  AM-RET-BEG-EARN-A             PIC X.                 ERCACCT
   717     12  AM-RET-MIN-LOSS-L                 PIC SV999      COMP-3. ERCACCT
   718     12  AM-RET-MIN-LOSS-A                 PIC SV999      COMP-3. ERCACCT
   719                                                                  ERCACCT
   720     12  AM-USER-SELECT-OPTIONS.                                  ERCACCT
   721         16  AM-USER-SELECT-1              PIC X(10).             ERCACCT
   722         16  AM-USER-SELECT-2              PIC X(10).             ERCACCT
   723         16  AM-USER-SELECT-3              PIC X(10).             ERCACCT
   724         16  AM-USER-SELECT-4              PIC X(10).             ERCACCT
   725         16  AM-USER-SELECT-5              PIC X(10).             ERCACCT
   726                                                                  ERCACCT
   727     12  AM-LF-RPT021-EXP-PCT              PIC S9(3)V9(4) COMP-3. ERCACCT
   728                                                                  ERCACCT
   729     12  AM-AH-RPT021-EXP-PCT              PIC S9(3)V9(4) COMP-3. ERCACCT
   730                                                                  ERCACCT
   731     12  AM-RPT045A-SWITCH                 PIC X.                 ERCACCT
   732         88  RPT045A-OFF                   VALUE 'N'.             ERCACCT
   733                                                                  ERCACCT
   734     12  AM-INSURANCE-LIMITS.                                     ERCACCT
   735         16  AM-MAX-MON-BEN                PIC S9(7)      COMP-3. ERCACCT
   736         16  AM-MAX-TOT-BEN                PIC S9(7)      COMP-3. ERCACCT
   737                                                                  ERCACCT
   738     12  AM-PROFILE-CHANGE-SWITCH          PIC X.                 ERCACCT
   739         88  AM-PROFILE-DATA-CHANGED          VALUE '*'.          ERCACCT
   740                                                                  ERCACCT
   741     12  AM-DISMBR-COVERAGE-SW             PIC X.                 ERCACCT
   742         88  AM-DISMBR-COVERAGE               VALUE 'Y'.          ERCACCT
   743         88  AM-NO-DISMBR-COVERAGE            VALUE 'N'.          ERCACCT
   744                                                                  ERCACCT
   745     12  AM-CANCEL-FEE                     PIC S9(3)V9(2) COMP-3. ERCACCT
   746                                                                  ERCACCT
   747     12  AM-TOL-REF-PCT                    PIC S9V9(4)    COMP-3. ERCACCT
   748     12  AM-CLP-TOL-PCT                    PIC S9V9(4)    COMP-3.
   749     12  AM-SPP-LEASE-COMM                 PIC S9(5)V99   COMP-3.
   750     12  AM-DCC-MAX-MARKETING-FEE          PIC S9(5)      COMP-3.
   751     12  AM-DCC-UEF-STATE                  PIC XX.
   752     12  FILLER                            PIC XXX.
   753     12  AM-REPORT-CODE-3                  PIC X(10).
   754*    12  FILLER                            PIC X(22).             ERCACCT
   755                                                                  ERCACCT
   756     12  AM-RESERVE-DATE.                                         ERCACCT
   757         16  AM-TARGET-LOSS-RATIO          PIC S9V9(4) COMP-3.    ERCACCT
   758         16  AM-LIFE-IBNR-PCT              PIC S9V9(4) COMP-3.    ERCACCT
   759         16  AM-CRDT-MODIFICATION-PCT      PIC S9V9(4) COMP-3.    ERCACCT
   760                                                                  ERCACCT
   761     12  AM-3RD-PARTY-NOTIF-LEVEL          PIC 99.                ERCACCT
   762     12  AM-NOTIFICATION-TYPES.                                   ERCACCT
   763         16  AM-NOTIF-OF-LETTERS           PIC X.                 ERCACCT
* Micro Focus Server Express         V5.1 revision 000 06-Oct-15 17:18 Page  15
* ECS025.cbl (/apps/prod/cid1p/copy/ERCACCT)
   764         16  AM-NOTIF-OF-PAYMENTS          PIC X.                 ERCACCT
   765         16  AM-NOTIF-OF-REPORTS           PIC X.                 ERCACCT
   766         16  AM-NOTIF-OF-STATUS            PIC X.                 ERCACCT
   767                                                                  ERCACCT
   768     12  AM-BENEFIT-TABLE-USAGE            PIC X.                 ERCACCT
   769         88  AM-BENEFIT-TABLE-USED            VALUE 'Y'.          ERCACCT
   770         88  AM-USE-DEVIATIONS-ONLY           VALUE 'D'.          ERCACCT
   771         88  AM-EDIT-BENEFITS-ONLY            VALUE 'E'.          ERCACCT
   772         88  AM-EDITS-NOT-USED                VALUE ' '  'N'.     ERCACCT
   773                                                                  ERCACCT
   774     12  AM-BENEFIT-CONTROLS.                                     ERCACCT
   775         16  AM-ALLOWABLE-BENEFITS  OCCURS  20  TIMES.            ERCACCT
   776             20  AM-BENEFIT-CODE           PIC XX.                ERCACCT
   777             20  AM-BENEFIT-TYPE           PIC X.                 ERCACCT
   778             20  AM-BENEFIT-REVISION       PIC XXX.               ERCACCT
   779             20  AM-BENEFIT-REM-TERM       PIC X.                 ERCACCT
   780             20  AM-BENEFIT-RETRO-Y-N      PIC X.                 ERCACCT
   781             20  FILLER                    PIC XX.                ERCACCT
   782         16  FILLER                        PIC X(80).             ERCACCT
   783                                                                  ERCACCT
   784     12  AM-TRANSFER-DATA.                                        ERCACCT
   785         16  AM-TRANSFERRED-FROM.                                 ERCACCT
   786             20  AM-TRNFROM-CARRIER        PIC X.                 ERCACCT
   787             20  AM-TRNFROM-GROUPING.                             ERCACCT
   788                 24  AM-TRNFROM-GRP-PREFIX PIC XXX.               ERCACCT
   789                 24  AM-TRNFROM-GRP-PRIME  PIC XXX.               ERCACCT
   790             20  AM-TRNFROM-STATE          PIC XX.                ERCACCT
   791             20  AM-TRNFROM-ACCOUNT.                              ERCACCT
   792                 24  AM-TRNFROM-ACCT-PREFIX PIC X(4).             ERCACCT
   793                 24  AM-TRNFROM-ACCT-PRIME PIC X(6).              ERCACCT
   794             20  AM-TRNFROM-DTE            PIC XX.                ERCACCT
   795         16  AM-TRANSFERRED-TO.                                   ERCACCT
   796             20  AM-TRNTO-CARRIER          PIC X.                 ERCACCT
   797             20  AM-TRNTO-GROUPING.                               ERCACCT
   798                 24  AM-TRNTO-GRP-PREFIX   PIC XXX.               ERCACCT
   799                 24  AM-TRNTO-GRP-PRIME    PIC XXX.               ERCACCT
   800             20  AM-TRNTO-STATE            PIC XX.                ERCACCT
   801             20  AM-TRNTO-ACCOUNT.                                ERCACCT
   802                 24  AM-TRNTO-ACCT-PREFIX  PIC X(4).              ERCACCT
   803                 24  AM-TRNTO-ACCT-PRIME   PIC X(6).              ERCACCT
   804             20  AM-TRNTO-DTE              PIC XX.                ERCACCT
   805         16  FILLER                        PIC X(10).             ERCACCT
   806                                                                  ERCACCT
   807     12  AM-SAVED-REMIT-TO                 PIC 99.                ERCACCT
   808                                                                  ERCACCT
   809     12  AM-COMM-STRUCTURE-SAVED.                                 ERCACCT
   810         16  AM-DEFN-1-SAVED.                                     ERCACCT
   811             20  AM-AGT-COMMS-SAVED    OCCURS 10 TIMES.           ERCACCT
   812                 24  AM-AGT-SV             PIC X(10).             ERCACCT
   813                 24  AM-COM-TYP-SV         PIC X.                 ERCACCT
   814                 24  AM-L-COM-SV           PIC SV9(5)     COMP-3. ERCACCT
   815                 24  AM-J-COM-SV           PIC SV9(5)     COMP-3. ERCACCT
   816                 24  AM-A-COM-SV           PIC SV9(5)     COMP-3. ERCACCT
   817                 24  AM-RECALC-LV-INDIC-SV PIC X.                 ERCACCT
   818                 24  FILLER                PIC X.                 ERCACCT
   819                 24  AM-GL-CODES-SV        PIC X.                 ERCACCT
   820                 24  AM-COM-CHARGEBACK-SV  PIC 99.                ERCACCT
   821                 24  FILLER                PIC X.                 ERCACCT
* Micro Focus Server Express         V5.1 revision 000 06-Oct-15 17:18 Page  16
* ECS025.cbl (/apps/prod/cid1p/copy/ERCACCT)
   822         16  AM-DEFN-2-SAVED   REDEFINES   AM-DEFN-1-SAVED.       ERCACCT
   823             20  AM-COM-TBLS-SAVED    OCCURS 10 TIMES.            ERCACCT
   824                 24  FILLER                PIC X(11).             ERCACCT
   825                 24  AM-L-COMA-SV          PIC XXX.               ERCACCT
   826                 24  AM-J-COMA-SV          PIC XXX.               ERCACCT
   827                 24  AM-A-COMA-SV          PIC XXX.               ERCACCT
   828                 24  FILLER                PIC X(6).              ERCACCT
   829                                                                  ERCACCT
   830     12  AM-FLC-NET-PREMIUM-ALLOWANCE.                            ERCACCT
   831         16 AM-ACCOUNT-ALLOWANCE OCCURS  5 TIMES.                 ERCACCT
   832            20  AM-ALLOW-BEGIN-RANGE       PIC S9(5)      COMP-3. ERCACCT
   833            20  AM-ALLOW-END-RANGE         PIC S9(5)      COMP-3. ERCACCT
   834            20  AM-ALLOWANCE-AMT           PIC S9(5)V99   COMP-3. ERCACCT
   835                                                                  ERCACCT
   836     12  AM-ORIG-DEALER-NO                 PIC X(10).             ERCACCT
   837     12  FILLER                            PIC X(120).            ERCACCT
   838                                                                  ERCACCT
   839     12  AM-ACCOUNT-EXECUTIVE-DATA.                               ERCACCT
   840         16  AM-CONTROL-NAME               PIC X(30).             ERCACCT
   841         16  AM-EXECUTIVE-ONE.                                    ERCACCT
   842             20  AM-EXEC1-NAME             PIC X(15).             ERCACCT
   843             20  AM-EXEC1-DIS-PERCENT      PIC S9(01)V9(04)       ERCACCT
   844                                                          COMP-3. ERCACCT
   845             20  AM-EXEC1-LIFE-PERCENT     PIC S9(01)V9(04)       ERCACCT
   846                                                          COMP-3. ERCACCT
   847         16  AM-EXECUTIVE-TWO.                                    ERCACCT
   848             20  AM-EXEC2-NAME             PIC X(15).             ERCACCT
   849             20  AM-EXEC2-DIS-PERCENT      PIC S9(01)V9(04)       ERCACCT
   850                                                          COMP-3. ERCACCT
   851             20  AM-EXEC2-LIFE-PERCENT     PIC S9(01)V9(04)       ERCACCT
   852                                                          COMP-3. ERCACCT
   853                                                                  ERCACCT
   854     12  AM-RETRO-ADDITIONAL-DATA.                                ERCACCT
   855         16  AM-RETRO-QUALIFY-LIMIT        PIC S9(7)      COMP-3. ERCACCT
   856         16  AM-RETRO-PREM-P-E             PIC X.                 ERCACCT
   857         16  AM-RETRO-CLMS-P-I             PIC X.                 ERCACCT
   858         16  AM-RETRO-RET-BRACKET-LF.                             ERCACCT
   859             20  AM-RETRO-RET-METHOD-LF    PIC X.                 ERCACCT
   860                 88  AM-RETRO-USE-PCT-LF      VALUE 'P' ' '.      ERCACCT
   861                 88  AM-RETRO-USE-SCALE-LF    VALUE 'S'.          ERCACCT
   862             20  AM-RETRO-RET-BASIS-LF     PIC X.                 ERCACCT
   863                 88  AM-RETRO-EARN-BASIS-LF   VALUE 'E' ' '.      ERCACCT
   864                 88  AM-RETRO-PAID-BASIS-LF   VALUE 'P'.          ERCACCT
   865             20  AM-RETRO-BRACKETS-LF  OCCURS  3 TIMES.           ERCACCT
   866                 24  AM-RETRO-RET-PCT-LF   PIC S9V9999    COMP-3. ERCACCT
   867                 24  AM-RETRO-RET-THRU-LF  PIC S9(7)      COMP-3. ERCACCT
   868         16  AM-RETRO-RET-BRACKET-AH.                             ERCACCT
   869             20  AM-RETRO-RET-METHOD-AH    PIC X.                 ERCACCT
   870                 88  AM-RETRO-USE-PCT-AH      VALUE 'P' ' '.      ERCACCT
   871                 88  AM-RETRO-USE-SCALE-AH    VALUE 'S'.          ERCACCT
   872                 88  AM-RETRO-USE-LIFE-METHOD VALUE 'L'.          ERCACCT
   873             20  AM-RETRO-RET-BASIS-AH     PIC X.                 ERCACCT
   874                 88  AM-RETRO-EARN-BASIS-AH   VALUE 'E' ' '.      ERCACCT
   875                 88  AM-RETRO-PAID-BASIS-AH   VALUE 'P'.          ERCACCT
   876             20  AM-RETRO-BRACKETS-AH  OCCURS  3 TIMES.           ERCACCT
   877                 24  AM-RETRO-RET-PCT-AH   PIC S9V9999    COMP-3. ERCACCT
   878                 24  AM-RETRO-RET-THRU-AH  PIC S9(7)      COMP-3. ERCACCT
   879                                                                  ERCACCT
* Micro Focus Server Express         V5.1 revision 000 06-Oct-15 17:18 Page  17
* ECS025.cbl (/apps/prod/cid1p/copy/ERCACCT)
   880     12  AM-COMMENTS.                                             ERCACCT
   881         16  AM-COMMENT-LINE           PIC X(50)   OCCURS 5 TIMES.ERCACCT
   882                                                                  ERCACCT
   883     12  AM-CLIENT-OVERLAY-FLI   REDEFINES   AM-COMMENTS.         ERCACCT
   884         16  AM-FLI-RETRO-SHARE-CODE       PIC X.                 ERCACCT
   885         16  AM-FLI-BILLING-CODE           PIC X.                 ERCACCT
   886         16  AM-FLI-ALT-STATE-CODE         PIC XX.                ERCACCT
   887         16  AM-FLI-UNITED-IDENT           PIC X.                 ERCACCT
   888         16  AM-FLI-INTEREST-LOST-DATA.                           ERCACCT
   889             20  AM-FLI-BANK-NO            PIC X(5).              ERCACCT
   890             20  AM-FLI-BANK-BALANCE       PIC S9(9)V99   COMP-3. ERCACCT
   891             20  AM-FLI-BANK-1ST-6-PREM    PIC S9(9)V99   COMP-3. ERCACCT
   892             20  AM-FLI-BANK-CAP-AMT       PIC S9(9)V99   COMP-3. ERCACCT
   893         16  AM-FLI-ALT-AGENT-CODES   OCCURS 10 TIMES.            ERCACCT
   894             20  AM-FLI-AGT                PIC X(9).              ERCACCT
   895             20  AM-FLI-AGT-COMM-ACC       PIC X.                 ERCACCT
   896             20  AM-FLI-AGT-SHARE-PCT      PIC S9V99      COMP-3. ERCACCT
   897         16  FILLER                        PIC X(102).            ERCACCT
   898                                                                  ERCACCT
   899     12  AM-CLIENT-OVERLAY-DMD   REDEFINES   AM-COMMENTS.         ERCACCT
   900         16  AM-ALLOWABLE-DMD-BENEFITS  OCCURS 30 TIMES.          ERCACCT
   901             20  AM-BENEFIT-DMD-CODE         PIC XX.              ERCACCT
   902             20  AM-BENEFIT-DMD-TYPE         PIC X.               ERCACCT
   903             20  AM-BENEFIT-DMD-REVISION     PIC XXX.             ERCACCT
   904             20  AM-BENEFIT-DMD-REM-TERM     PIC X.               ERCACCT
   905             20  AM-BENEFIT-DMD-RETRO-Y-N    PIC X.               ERCACCT
   906         16  FILLER                          PIC X(10).           ERCACCT
   907******************************************************************ERCACCT
   908                                                                  ECS025
* Micro Focus Server Express         V5.1 revision 000 06-Oct-15 17:18 Page  18
* ECS025.cbl
   910 FD  DISK-DATE                                                    ECS025
*  911                             COPY ELCDTEFD.                       ECS025
   912******************************************************************04/15/98
   913*                                                                *ELCDTEFD
   914*                                                                *ELCDTEFD
   915*                            ELCDTEFD.                           *   LV002
   916*           COPYBOOK REVIEWED FOR YEAR 2000 COMPLIANCE               CL**2
   917*                            VMOD=2.007                          *   CL**2
   918*                                                                *ELCDTEFD
   919******************************************************************ELCDTEFD
   920     BLOCK CONTAINS 0 RECORDS
   921     RECORDING MODE F.                                            ELCDTEFD
   922                                                                  ELCDTEFD
   923 01  DATE-DISK.                                                   ELCDTEFD
   924     12  DD-ID                       PIC  X(4).                   ELCDTEFD
   925     12  FILLER                      PIC  X(14).                  ELCDTEFD
   926     12  DD-CR1                      PIC  9.                      ELCDTEFD
   927     12  DD-CR1N                     PIC  X(30).                  ELCDTEFD
   928     12  DD-CR2                      PIC  9.                      ELCDTEFD
   929     12  DD-CR2N                     PIC  X(30).                  ELCDTEFD
   930     12  FILLER                      PIC  X(20).                  ELCDTEFD
   931                                                                  ELCDTEFD
   932 01  DATE-DISK-R.                                                 ELCDTEFD
   933     12  FILLER                      PIC  X(4).                   ELCDTEFD
   934     12  DD-ST           OCCURS 3 TIMES                           ELCDTEFD
   935                                     PIC  X(32).                  ELCDTEFD
   936                                                                  ELCDTEFD
   937 01  DATE-DISK-T.                                                 ELCDTEFD
   938     12  FILLER                      PIC  X(4).                   ELCDTEFD
   939     12  DD-TYPE         OCCURS 2 TIMES                           ELCDTEFD
   940                                     PIC  X(48).                  ELCDTEFD
   941                                                                  ELCDTEFD
   942 01  DATE-DISK-M.                                                 ELCDTEFD
   943     12  FILLER                      PIC  X(4).                   ELCDTEFD
   944     12  DD-MORT         OCCURS 2 TIMES                           ELCDTEFD
   945                                     PIC  X(48).                  ELCDTEFD
   946                                                                  ELCDTEFD
   947 01  DATE-DISK-P.                                                 ELCDTEFD
   948     12  DD-IDA                      PIC  XX.                     ELCDTEFD
   949     12  DD-IDX                      PIC  99.                     ELCDTEFD
   950     12  DD-DATA                     PIC  X(96).                  ELCDTEFD
   951     12  FILLER  REDEFINES DD-DATA.                               ELCDTEFD
   952         16  DD-PS-PIC   OCCURS 50 TIMES                          ELCDTEFD
   953                                     PIC  X.                      ELCDTEFD
   954         16  FILLER                  PIC  X(46).                  ELCDTEFD
   955     12  FILLER  REDEFINES DD-DATA.                               ELCDTEFD
   956         16  DD-PS-PICO  OCCURS 20 TIMES.                         ELCDTEFD
   957             20  DD-PS-PRT           PIC  X.                      ELCDTEFD
   958             20  DD-PS-FMT           PIC  X.                      ELCDTEFD
   959             20  DD-PS-PRC           PIC  X.                      ELCDTEFD
   960             20  DD-PS-TOT           PIC  X.                      ELCDTEFD
   961         16  FILLER                  PIC  X(16).                  ELCDTEFD
   962                                                                  ELCDTEFD
   963 01  DATE-DISK-E.                                                 ELCDTEFD
   964     12  FILLER                      PIC  X(4).                   ELCDTEFD
   965     12  DD-EDIT         OCCURS 24 TIMES                          ELCDTEFD
   966                                     PIC  X(4).                   ELCDTEFD
   967                                                                  ELCDTEFD
* Micro Focus Server Express         V5.1 revision 000 06-Oct-15 17:18 Page  19
* ECS025.cbl (/apps/prod/cid1p/copy/ELCDTEFD)
   968 01  DATE-DISK-C.                                                 ELCDTEFD
   969     12  FILLER                      PIC  X(7).                   ELCDTEFD
   970     12  DD-CARR1-SECPAY-SW          PIC  X.
   971     12  DD-CARR1-UEP-PCT            PIC  S9V9(4) COMP-3.         ELCDTEFD
   972     12  DD-CARR1-R78-PCT            PIC  S9V9(4) COMP-3.         ELCDTEFD
   973     12  DD-CARR1-PRO-PCT            PIC  S9V9(4) COMP-3.         ELCDTEFD
   974     12  DD-CARR1                    PIC  X.                      ELCDTEFD
   975     12  DD-CARR1S                   PIC  XX.                     ELCDTEFD
   976     12  DD-CARR1N                   PIC  X(30).                  ELCDTEFD
   977     12  DD-CARR2                    PIC  X.                      ELCDTEFD
   978     12  DD-CARR2S                   PIC  XX.                     ELCDTEFD
   979     12  DD-CARR2N                   PIC  X(30).                  ELCDTEFD
   980     12  DD-CARR2-UEP-PCT            PIC  S9V9(4) COMP-3.         ELCDTEFD
   981     12  DD-CARR2-R78-PCT            PIC  S9V9(4) COMP-3.         ELCDTEFD
   982     12  DD-CARR2-PRO-PCT            PIC  S9V9(4) COMP-3.         ELCDTEFD
   983     12  DD-CARR2-SECPAY-SW          PIC  X.
   984     12  FILLER                      PIC  X(7).                   ELCDTEFD
   985                                                                  ELCDTEFD
   986 01  DATE-DISK-OPT.                                               ELCDTEFD
   987     12  FILLER                      PIC  X(04).                  ELCDTEFD
   988     12  DD-TLR-DATA.                                             ELCDTEFD
   989         16  DD-TLR                  OCCURS 32 TIMES              ELCDTEFD
   990                                     PIC  X(03).                  ELCDTEFD
   991     12  DD-STATE-DATA REDEFINES DD-TLR-DATA.                     ELCDTEFD
   992         16  DD-STATE-FLDS           OCCURS 16 TIMES              ELCDTEFD
   993                                     PIC  X(06).                  ELCDTEFD
   994     12  DD-CARR-DATA REDEFINES DD-TLR-DATA.                      ELCDTEFD
   995         16  DD-CARR-FLDS            OCCURS 13 TIMES              ELCDTEFD
   996                                     PIC  X(07).                  ELCDTEFD
   997         16  FILLER                  PIC  X(05).                  ELCDTEFD
   998     12  DD-MISC-DATA REDEFINES DD-TLR-DATA                       ELCDTEFD
   999                                     PIC  X(96).                  ELCDTEFD
  1000******************************************************************ELCDTEFD
  1001                                                                  ECS025
* Micro Focus Server Express         V5.1 revision 000 06-Oct-15 17:18 Page  20
* ECS025.cbl
  1003 FD  PRNTR                                                        ECS025
* 1004                             COPY ELCPRTFD.                       ECS025
  1005******************************************************************04/15/98
  1006*                                                                *ELCPRTFD
  1007*                                                                *ELCPRTFD
  1008*                            ELCPRTFD.                           *   LV003
  1009*           COPYBOOK REVIEWED FOR YEAR 2000 COMPLIANCE               CL**3
  1010*                            VMOD=2.006                          *ELCPRTFD
  1011******************************************************************ELCPRTFD
  1012     RECORDING MODE F                                             ELCPRTFD
  1013     LABEL RECORDS OMITTED                                        ELCPRTFD
  1014     BLOCK CONTAINS 0 RECORDS
  1015     RECORD CONTAINS 133 CHARACTERS.                              ELCPRTFD
  1016 01  PRT.                                                         ELCPRTFD
  1017     12  P-CTL               PIC  X.                                 CL**2
  1018     12  P-DATA              PIC  X(132).                         ELCPRTFD
  1019******************************************************************ELCPRTFD
  1020                                                                  ECS025
  1021 FD  FICH                                                         ECS025
* 1022                             COPY ELCFCHFD.                       ECS025
  1023******************************************************************04/15/98
  1024*                                                                *ELCFCHFD
  1025*                            ELCFCHFD.                           *   LV003
  1026*           COPYBOOK REVIEWED FOR YEAR 2000 COMPLIANCE               CL**2
  1027*                            VMOD=2.004                          *   CL**3
  1028*                                                                *ELCFCHFD
  1029******************************************************************ELCFCHFD
  1030     BLOCK CONTAINS 0 RECORDS
  1031     RECORDING MODE F.                                            ELCFCHFD
  1032                                                                  ELCFCHFD
  1033 01  FICH-REC                            PIC   X(133).            ELCFCHFD
  1034******************************************************************ELCFCHFD
  1035                                                                  ECS025
  1036                                                                  ECS025
* Micro Focus Server Express         V5.1 revision 000 06-Oct-15 17:18 Page  21
* ECS025.cbl
  1038 WORKING-STORAGE SECTION.                                         ECS025
  1039 01  LCP-ABND-CODE                 PIC S999 COMP VALUE +519.      ECS025
  1040 77  LCP-ASA                       PIC X.                         ECS025
  1041 77  FILLER  PIC X(32) VALUE '********************************'.  ECS025
  1042 77  FILLER  PIC X(32) VALUE '     ECS025 WORKING STORAGE     '.  ECS025
  1043 77  FILLER  PIC X(32) VALUE '*****VMOD=2.007 ****************'.  ECS025
  1044                                                                  ECS025
  1045 01  FIRST-PASS               PIC 9 VALUE 0.                      ECS025
  1046 01  VSAM-ERROR.                                                  ECS025
  1047     05  VSAM-CONSTANT        PIC XX VALUE '06'.                  ECS025
  1048     05  VSAM-ERR-CODE        PIC XX VALUE '00'.                  ECS025
  1049 01  AM-FILE-STATUS           PIC XX VALUE '00'.                  ECS025
  1050 01  WS.                                                          ECS025
  1051     12  PGM-SUB         PIC S999    COMP      VALUE +025.        ECS025
  1052     12  WS-ABEND-MESSAGE PIC X(80)    VALUE ZEROS.               ECS025
  1053     12  WS-RETURN-CODE  PIC X(4)    VALUE ZEROS.                 ECS025
  1054     12  WS-ABEND-FILE-STATUS PIC XX VALUE SPACES.                ECS025
  1055     12  WS-ZERO         PIC S9    VALUE ZEROS.                   ECS025
  1056     12  ABEND-OPTION    PIC X     VALUE 'Y'.                     ECS025
  1057     12  X               PIC X     VALUE ' '.                     ECS025
  1058 01  WS-AM-CO            PIC X(7) VALUE SPACE.                    ECS025
* Micro Focus Server Express         V5.1 revision 000 06-Oct-15 17:18 Page  22
* ECS025.cbl
* 1060                             COPY ELCDTECX.                       ECS025
  1061******************************************************************06/05/98
  1062*                                                                *ELCDTECX
  1063*                            ELCDTECX.                           *   LV005
  1064*           COPYBOOK REVIEWED FOR YEAR 2000 COMPLIANCE               CL**2
  1065*                            VMOD=2.015                          *ELCDTECX
  1066*                                                                *ELCDTECX
  1067*      WORKING STORAGE COPY CODE FOR APPLICATIONS CALLING        *ELCDTECX
  1068*      THE DATE CARD DISK FILE. ( READ ROUTINE = ELCDTERX,       *ELCDTECX
  1069*      AND DISK FILE FD = ELCDTEFX)                              *ELCDTECX
  1070*                                                                *ELCDTECX
  1071******************************************************************ELCDTECX
  1072******************************************************************
  1073*                   C H A N G E   L O G
  1074*
  1075* CHANGES ARE MARKED BY THE CHANGE EFFECTIVE DATE.
  1076*-----------------------------------------------------------------
  1077*  CHANGE   CHANGE REQUEST PGMR  DESCRIPTION OF CHANGE
  1078* EFFECTIVE    NUMBER
  1079*-----------------------------------------------------------------
  1080* 092602    2002091900008  PEMA  INCREASE NUMBER OF MAXIMUM
  1081*                                  BENEFIT CODES FROM 300 TO 900
  1082* 090803    2003080800002  PEMA  ADD CATEGORY FOR SUPER GAP
  1083* 051304    2003080800002  SMVA  ADD REFUND METHOD
  1084* 071714    2013100100002  PEMA  FIX CRIT PERIOD EDITS
  1085******************************************************************
  1086 01  DATE-CARD.                                                   ELCDTECX
  1087     12  DATX-COD                    PIC  X(4).                   ELCDTECX
  1088     12  RUN-DATE                    PIC  9(11)  COMP-3.          ELCDTECX
  1089     12  ALPH-DATE                   PIC  X(18).                  ELCDTECX
  1090     12  EP-DT                       PIC  9(11)  COMP-3.          ELCDTECX
  1091     12  PEND-ACT-FILE               PIC  XX.                     ELCDTECX
  1092     12  EP-SW                       PIC  X.                      ELCDTECX
  1093         88  NO-EP-EXTRACTS          VALUE SPACE.                 ELCDTECX
  1094     12  TAPE-BATCHES                PIC  X.                      ELCDTECX
  1095         88  TP-PREL-BAL             VALUE '1'.                   ELCDTECX
  1096     12  BIN-RUN-DATE                PIC  XX.                     ELCDTECX
  1097     12  RUN-CENTURY.                                             ELCDTECX
  1098         16 RUN-CENTURY-N            PIC  99.                        CL**4
  1099     12  FILLER                      PIC  X.                         CL**4
  1100     12  CLAS-MORT-OVRD              PIC  X(4).                   ELCDTECX
  1101     12  FILLER                      PIC  XXX.                    ELCDTECX
  1102     12  COMPANY-NAME                PIC  X(30).                  ELCDTECX
  1103                                                                  ELCDTECX
  1104 01  FILLER                          PIC  X(7)                       CL**6
  1105                                          VALUE 'OPTIONS'.        ELCDTECX
  1106 01  DATE-CARD-OPTIONS.                                           ELCDTECX
  1107     12  DATE-OPTIONS-ID             PIC  X(4).                   ELCDTECX
  1108     12  DTE-MIN-PREM                PIC  99V99.                  ELCDTECX
  1109     12  DTE-LANGUAGE-IND            PIC  X.                      ELCDTECX
  1110         88  DTE-LANGUAGE-IS-FR           VALUE 'F'.              ELCDTECX
  1111         88  DTE-LANGUAGE-IS-ENG          VALUE 'E'.              ELCDTECX
  1112     12  DTE-MIN-AGE                 PIC  99.                     ELCDTECX
  1113     12  DTE-DEFAULT-AGE             PIC  99.                     ELCDTECX
  1114     12  FILLER                      PIC  X.                      ELCDTECX
  1115     12  DTE-MAX-TERM                PIC  999.                    ELCDTECX
  1116     12  DTE-COMP-VG                 PIC  X.                      ELCDTECX
  1117     12  DTE-REM-TRM                 PIC  X.                      ELCDTECX
* Micro Focus Server Express         V5.1 revision 000 06-Oct-15 17:18 Page  23
* ECS025.cbl (/apps/prod/cid1p/copy/ELCDTECX)
  1118     12  DTE-PRM-CK                  PIC S99V99.                  ELCDTECX
  1119     12  DTE-PRORATA                 PIC  X.                      ELCDTECX
  1120     12  DTE-CLM-REJ                 PIC  X.                      ELCDTECX
  1121     12  DTE-REF-REJ                 PIC  X.                      ELCDTECX
  1122     12  DTE-COM-TBL-USED            PIC  X.                      ELCDTECX
  1123     12  FILLER                      PIC  X.                      ELCDTECX
  1124     12  DTE-QTR-CO                  PIC  X.                      ELCDTECX
  1125     12  DTE-REF-CK                  PIC S99V99.                  ELCDTECX
  1126     12  DTE-CLM-CK                  PIC S99V99.                  ELCDTECX
  1127     12  DTE-CONV-DT                 PIC 9(11) COMP-3.               CL**2
  1128     12  DTE-DEFAULT-SEX             PIC  X.                      ELCDTECX
  1129     12  DTE-EPL-FORMAT              PIC  X.                      ELCDTECX
  1130     12  FILLER                      PIC  X.                      ELCDTECX
  1131     12  DTE-JT-AGE                  PIC  X.                      ELCDTECX
  1132     12  DTE-KEY-BIRTH               PIC  X.                      ELCDTECX
  1133     12  DTE-REINSURANCE             PIC  X.                      ELCDTECX
  1134     12  DTE-CLAIM-SORT              PIC  X.                      ELCDTECX
  1135     12  DTE-WRT-OFF                 PIC  S99V99.                 ELCDTECX
  1136     12  DTE-R78                     PIC  X.                      ELCDTECX
  1137     12  DTE-DLY-BILL                PIC  X.                      ELCDTECX
  1138     12  DTE-ALT-MORT-CODE           PIC  X(4).                   ELCDTECX
  1139     12  DTE-CLAIM-PAID-THRU-TO      PIC  X.                      ELCDTECX
  1140     12  DTE-COMPENSATION-ACCESS     PIC  X.                      ELCDTECX
  1141     12  DTE-MORTG-ACCESS-CNTL       PIC  X.                      ELCDTECX
  1142     12  DTE-MP-ALT-MORT-CODE        PIC  X(4).                   ELCDTECX
  1143     12  DTE-MORTALITY-AGE-CALC-METHOD                            ELCDTECX
  1144                                     PIC  X.                      ELCDTECX
  1145         88  DTE-USE-TABLE-ASSIGNED-METHOD VALUE '1'              ELCDTECX
  1146                                                 ' '.             ELCDTECX
  1147         88  DTE-USE-ALL-AGE-LAST          VALUE '2'.             ELCDTECX
  1148         88  DTE-USE-ALL-AGE-NEAR          VALUE '3'.             ELCDTECX
  1149     12  DTE-RESERVE-OPTION-SWITCH   PIC  X.                      ELCDTECX
  1150         88  DTE-OPT-RESERVE-METHOD-AUTH       VALUE 'Y'.         ELCDTECX
  1151         88  DTE-OPT-RESERVE-METHOD-UNAUTH     VALUE 'N' ' '.     ELCDTECX
  1152     12  DTE-REM-TRM-CALC-OPTION     PIC  X.                      ELCDTECX
  1153     12  DTE-EXPERIENCE-RETENTION-AGE                             ELCDTECX
  1154                                     PIC  9.                         CL**4
  1155     12  DTE-SYSTEM.                                              ELCDTECX
  1156         16  DTE-SYS-A-CREDIT        PIC  X.                      ELCDTECX
  1157         16  DTE-SYS-B-PEND-CLAIM    PIC  X.                      ELCDTECX
  1158         16  DTE-SYS-C-CONFIRMATIONS PIC  X.                      ELCDTECX
  1159         16  DTE-SYS-D-DEMAND-BILL   PIC  X.                      ELCDTECX
  1160         16  DTE-SYS-E-CLASIC-CLAIMS PIC  X.                      ELCDTECX
  1161         16  DTE-SYS-F-CLASIC-CREDIT PIC  X.                      ELCDTECX
  1162         16  DTE-SYS-G-AR-USED       PIC  X.                      ELCDTECX
  1163         16  DTE-SYS-H               PIC  X.                      ELCDTECX
  1164         16  DTE-SYS-I               PIC  X.                      ELCDTECX
  1165         16  DTE-SYS-J               PIC  X.                      ELCDTECX
  1166         16  DTE-SYS-K               PIC  X.                      ELCDTECX
  1167         16  DTE-SYS-L               PIC  X.                      ELCDTECX
  1168         16  DTE-SYS-M               PIC  X.                      ELCDTECX
  1169         16  DTE-SYS-N               PIC  X.                      ELCDTECX
  1170         16  DTE-SYS-O               PIC  X.                      ELCDTECX
  1171         16  DTE-SYS-P               PIC  X.                      ELCDTECX
  1172         16  DTE-SYS-Q               PIC  X.                      ELCDTECX
  1173         16  DTE-SYS-R               PIC  X.                      ELCDTECX
  1174         16  DTE-SYS-S               PIC  X.                      ELCDTECX
  1175         16  DTE-SYS-T               PIC  X.                      ELCDTECX
* Micro Focus Server Express         V5.1 revision 000 06-Oct-15 17:18 Page  24
* ECS025.cbl (/apps/prod/cid1p/copy/ELCDTECX)
  1176         16  DTE-SYS-U               PIC  X.                      ELCDTECX
  1177         16  DTE-SYS-V               PIC  X.                      ELCDTECX
  1178         16  DTE-SYS-W               PIC  X.                      ELCDTECX
  1179         16  DTE-SYS-X               PIC  X.                      ELCDTECX
  1180         16  DTE-SYS-Y               PIC  X.                      ELCDTECX
  1181         16  DTE-SYS-Z               PIC  X.                      ELCDTECX
  1182     12  FILLER                      REDEFINES DTE-SYSTEM.        ELCDTECX
  1183         16  DTE-SYS-CODE            OCCURS 26 TIMES              ELCDTECX
  1184                                     PIC  X.                      ELCDTECX
  1185     12  DTE-CLIENT                  PIC  XXX.                    ELCDTECX
  1186                                                                  ELCDTECX
  1187 01  CLASIC-SYSTEM-CODES.                                         ELCDTECX
  1188     12  DTE-COLC-ID                 PIC  X(4).                   ELCDTECX
  1189     12  DTE-CLASIC-COMPANY-CD       PIC  X.                      ELCDTECX
  1190     12  DTE-CLASIC-COMPANY-NUMBER   PIC  999.                    ELCDTECX
  1191*    12  DTE-CLASIC-CLAIM-ACCESS     PIC  X.                      ELCDTECX
  1192     12  FILLER                      PIC  X.                      ELCDTECX
  1193     12  CLASIC-REIN-MAINT           PIC  XX.                     ELCDTECX
  1194     12  CLASIC-COMP-MAINT           PIC  XX.                     ELCDTECX
  1195     12  CLASIC-ACCT-MAINT           PIC  XX.                     ELCDTECX
  1196     12  CLASIC-CTBL-MAINT           PIC  XX.                     ELCDTECX
  1197     12  CLASIC-RATE-MAINT           PIC  XX.                     ELCDTECX
  1198     12  CLASIC-CREDIT-EOM-DT        PIC  XX.                     ELCDTECX
  1199     12  CLASIC-CLAIMS-EOM-DT        PIC  XX.                     ELCDTECX
  1200                                                                  ELCDTECX
  1201     12  LIFE-OVERRIDE-L1            PIC  X.                      ELCDTECX
  1202     12  LIFE-OVERRIDE-L2            PIC  XX.                     ELCDTECX
  1203     12  LIFE-OVERRIDE-L6            PIC  X(6).                   ELCDTECX
  1204     12  LIFE-OVERRIDE-L12           PIC  X(12).                  ELCDTECX
  1205                                                                  ELCDTECX
  1206     12  AH-OVERRIDE-L1              PIC  X.                      ELCDTECX
  1207     12  AH-OVERRIDE-L2              PIC  XX.                     ELCDTECX
  1208     12  AH-OVERRIDE-L6              PIC  X(6).                   ELCDTECX
  1209     12  AH-OVERRIDE-L12             PIC  X(12).                  ELCDTECX
  1210                                                                  ELCDTECX
  1211     12  CLAS-REPORT-CD1-CAPTION     PIC  X(10).                  ELCDTECX
  1212     12  CLAS-REPORT-CD2-CAPTION     PIC  X(10).                  ELCDTECX
  1213                                                                  ELCDTECX
  1214     12  CLASIC-MORTG-EOM-DT         PIC  XX.                     ELCDTECX
  1215     12  CLASIC-AR-EOM-DT            PIC  XX.                     ELCDTECX
  1216                                                                  ELCDTECX
  1217     12  FILLER                      PIC  X(11)      VALUE SPACE. ELCDTECX
  1218                                                                  ELCDTECX
  1219 01  DATE-CARD-FACTORS.                                           ELCDTECX
  1220     12  DATE-FACTOR-ID              PIC  X(4).                   ELCDTECX
  1221     12  FAC-1                       PIC S999V9(5).               ELCDTECX
  1222     12  FAC-2                       PIC S999V9(5).               ELCDTECX
  1223     12  FAC-3                       PIC S999V9(5).               ELCDTECX
  1224     12  FAC-4                       PIC S999V9(5).               ELCDTECX
  1225     12  FAC-5                       PIC S999V9(5).               ELCDTECX
  1226     12  FAC-6                       PIC S999V9(5).               ELCDTECX
  1227                                                                  ELCDTECX
  1228 01  FILLER                          PIC  X(12)                   ELCDTECX
  1229                                          VALUE 'COMPANY NAME'.   ELCDTECX
  1230 01  COMPANY-NAME-TABLE.                                          ELCDTECX
  1231     12  C-N-TBL                     OCCURS 6 TIMES.              ELCDTECX
  1232         16  CNT-ID                  PIC  X.                      ELCDTECX
  1233         16  CNT-NAME                PIC  X(30).                  ELCDTECX
* Micro Focus Server Express         V5.1 revision 000 06-Oct-15 17:18 Page  25
* ECS025.cbl (/apps/prod/cid1p/copy/ELCDTECX)
  1234                                                                  ELCDTECX
  1235 01  FILLER                          PIC  X(11)                   ELCDTECX
  1236                                          VALUE 'STATE NAMES'.    ELCDTECX
  1237 01  STATE-NAMES.                                                 ELCDTECX
  1238     12  STATE-NAME-FLD              OCCURS 75 TIMES.             ELCDTECX
  1239         16  STATE-SUB               PIC  XX.                     ELCDTECX
  1240         16  STATE-PIC1.                                          ELCDTECX
  1241             20  STATE-ABBR          PIC  XX.                     ELCDTECX
  1242             20  FILLER              PIC  XXX.                    ELCDTECX
  1243             20  STATE-PIC           PIC  X(20).                  ELCDTECX
  1244             20  STATE-CALL-EARN     PIC  X.                      ELCDTECX
  1245             20  STATE-CALL-BREAK    PIC  X.                      ELCDTECX
  1246             20  STATE-PRIM-FAC-DEV  PIC  XXX.                    ELCDTECX
  1247                                                                  ELCDTECX
  1248 01  FILLER                          PIC  X(13)                   ELCDTECX
  1249                                          VALUE 'CARRIER NAMES'.  ELCDTECX
  1250 01  CARRIER-NAMES.                                               ELCDTECX
  1251     12  CARRIER-NAME-FLD            OCCURS 25 TIMES.             ELCDTECX
  1252         16  CARRIER-SUB             PIC  X.                      ELCDTECX
  1253         16  CARRIER-DOM-ST          PIC  XX.                     ELCDTECX
  1254         16  CARRIER-PIC             PIC  X(30).                  ELCDTECX
  1255         16  CARRIER-UEP-PCT         PIC  S9V9(4) COMP-3.            CL**6
  1256         16  CARRIER-R78-PCT         PIC  S9V9(4) COMP-3.            CL**6
  1257         16  CARRIER-PRO-PCT         PIC  S9V9(4) COMP-3.            CL**6
  1258*        16  FILLER                  PIC  X.                      ELCDTECX
  1259         16  CARRIER-SEC-PAY         PIC  X.
  1260             88  SEC-PAY-CARRIER          VALUE 'Y'.
  1261                                                                  ELCDTECX
  1262 01  FILLER                          PIC  X(9)                       CL**6
  1263                                          VALUE 'INS TYPES'.      ELCDTECX
  1264 01  CLAS-INS-TYPES.                                              ELCDTECX
  1265*    12 CLAS-ALL-TYPES               OCCURS 300 TIMES.            ELCDTECX
  1266     12 CLAS-ALL-TYPES               OCCURS 900 TIMES.            ELCDTECX
  1267         16  CLAS-I-BEN              PIC  XX.                     ELCDTECX
  1268         16  CLAS-I-AB3.                                          ELCDTECX
  1269             20  FILLER              PIC  X.                      ELCDTECX
  1270             20  CLAS-I-AB2.                                      ELCDTECX
  1271                 24  FILLER          PIC  X.                      ELCDTECX
  1272                 24  CLAS-I-AB1      PIC  X.                      ELCDTECX
  1273         16  CLAS-I-AB3-AH REDEFINES CLAS-I-AB3.                  ELCDTECX
  1274             20  CLAS-EXCLUSION      PIC  XX.                        CL**4
  1275             20  FILLER              PIC  X.                         CL**4
  1276         16  CLAS-I-AB10.                                         ELCDTECX
  1277             20  FILLER              PIC  X(9).                   ELCDTECX
  1278             20  CLAS-I-REIN-YN      PIC  X.                      ELCDTECX
  1279         16  CLAS-I-COMMENT          PIC  X(10).                  ELCDTECX
  1280         16  CLAS-I-JOINT            PIC  X.                      ELCDTECX
  1281         16  CLAS-I-RL-AH            PIC  X.                      ELCDTECX
  1282         16  CLAS-I-CALC-TYPE.                                    ELCDTECX
  1283             20  CLAS-I-BAL          PIC  X.                      ELCDTECX
  1284         16  CLAS-I-EP               PIC  X.                      ELCDTECX
  1285         16  CLAS-CO-BEN-I-G-CD      PIC  X.                      ELCDTECX
  1286         16  CLAS-CO-REM-TERM-CALC   PIC  X.                      ELCDTECX
  1287         16  CLAS-I-BEN-CATEGORY     PIC  X.
  1288         16  CLAS-I-REFUND-METHOD    PIC  X.
  1289         16  CLAS-I-MAX-BENEFITS     PIC 99.
  1290         16  FILLER                  PIC  XXX.
  1291                                                                  ELCDTECX
* Micro Focus Server Express         V5.1 revision 000 06-Oct-15 17:18 Page  26
* ECS025.cbl (/apps/prod/cid1p/copy/ELCDTECX)
  1292 01  FILLER                          PIC  X(16)                   ELCDTECX
  1293                                     VALUE 'MORTALITY TABLES'.    ELCDTECX
  1294 01  CLAS-MORTALITY-CODES.                                        ELCDTECX
  1295     12  CLAS-MORT-FLD               OCCURS 99 TIMES              ELCDTECX
  1296                                     INDEXED BY CLAS-MORT-NDX.    ELCDTECX
  1297         16  CLAS-MORT-CODE          PIC  X(4).                      CL**6
  1298         16  CLAS-MORT-J-CODE        PIC  X.                         CL**5
  1299         16  CLAS-MORT-J-FACT        PIC S9V9(4).                    CL**6
  1300         16  CLAS-MORT-DESC.                                      ELCDTECX
  1301             20  CLAS-RESERVE-ADJ    PIC  999.                       CL**6
  1302             20  FILLER              PIC  XX.                        CL**5
  1303             20  CLAS-YEAR           PIC  X(4).                      CL**6
  1304             20  FILLER              PIC  X.                         CL**5
  1305             20  CLAS-TABLE-TYPE     PIC  XXX.                       CL**6
  1306             20  FILLER              PIC  X.                         CL**5
  1307             20  CLAS-AGE-METHOD     PIC  XX.                        CL**5
  1308             20  FILLER              PIC  X.                         CL**5
  1309             20  CLAS-INTEREST       PIC  99.99.                     CL**5
  1310             20  FILLER              PIC  X(5).                      CL**6
  1311                                                                  ELCDTECX
  1312 01  FILLER                          PIC  X(15)                   ELCDTECX
  1313                                     VALUE 'BUSINESS TABLES'.     ELCDTECX
  1314 01  CLAS-BUSINESS-CLASSES.                                       ELCDTECX
  1315     12  CLAS-BUSC-FLD               OCCURS 50 TIMES.             ELCDTECX
  1316         16  CLAS-BUSC-CODE          PIC  99.                     ELCDTECX
  1317         16  CLAS-BUSC-GROUP         PIC  X.                      ELCDTECX
  1318         16  CLAS-BUSC-DESC          PIC  X(19).                  ELCDTECX
  1319         16  CLAS-BUSC-EXCL          PIC  X.                         CL**5
  1320         16  FILLER                  PIC  X(4).                      CL**6
  1321                                                                  ELCDTECX
  1322 01  FILLER                          PIC  X(7)                       CL**6
  1323                                     VALUE 'INDEXES'.             ELCDTECX
  1324 01  CLAS-INDEX-TBL.                                              ELCDTECX
  1325     12  CLAX-ID                     PIC  X(4).                   ELCDTECX
  1326     12  CLAS-STARTC                 PIC S9(4) COMP.              ELCDTECX
  1327     12  CLAS-MAXC                   PIC S9(4) COMP.              ELCDTECX
  1328     12  CLAS-STARTL                 PIC S9(4) COMP.              ELCDTECX
  1329     12  CLAS-MAXL                   PIC S9(4) COMP.              ELCDTECX
  1330     12  CLAS-STARTA                 PIC S9(4) COMP.              ELCDTECX
  1331     12  CLAS-MAXA                   PIC S9(4) COMP.              ELCDTECX
  1332     12  CLAS-STARTM                 PIC S9(4) COMP.              ELCDTECX
  1333     12  CLAS-MAXM                   PIC S9(4) COMP.              ELCDTECX
  1334     12  CLAS-STARTB                 PIC S9(4) COMP.              ELCDTECX
  1335     12  CLAS-MAXB                   PIC S9(4) COMP.              ELCDTECX
  1336     12  CLAS-STARTS                 PIC S9(4) COMP.              ELCDTECX
  1337     12  CLAS-MAXS                   PIC S9(4) COMP.              ELCDTECX
  1338     12  CLAS-STARTE                 PIC S9(4) COMP.              ELCDTECX
  1339     12  CLAS-MAXE                   PIC S9(4) COMP.              ELCDTECX
  1340     12  CLAS-STARTCN                PIC S9(4) COMP.              ELCDTECX
  1341     12  CLAS-MAXCN                  PIC S9(4) COMP.              ELCDTECX
  1342                                                                  ELCDTECX
  1343 01  CLAS-TYPE-MISC.                                              ELCDTECX
  1344     12  CLAS-INDEXC                 PIC S9(4) COMP.              ELCDTECX
  1345     12  CLAS-INDEXL                 PIC S9(4) COMP.              ELCDTECX
  1346     12  CLAS-INDEXA                 PIC S9(4) COMP.              ELCDTECX
  1347     12  CLAS-INDEXM                 PIC S9(4) COMP.              ELCDTECX
  1348     12  CLAS-INDEXB                 PIC S9(4) COMP.              ELCDTECX
  1349     12  CLAS-INDEXS                 PIC S9(4) COMP.              ELCDTECX
* Micro Focus Server Express         V5.1 revision 000 06-Oct-15 17:18 Page  27
* ECS025.cbl (/apps/prod/cid1p/copy/ELCDTECX)
  1350     12  CLAS-INDEXE                 PIC S9(4) COMP.              ELCDTECX
  1351     12  CLAS-INDEX                  PIC S9(4) COMP.              ELCDTECX
  1352     12  CLAS-INDEXEN                PIC S9(4) COMP.              ELCDTECX
  1353     12  CLAS-INDEXCN                PIC S9(4) COMP.              ELCDTECX
  1354     12  CLAS-INDEXON                PIC S9(4) COMP.              ELCDTECX
  1355                                                                  ELCDTECX
  1356 01  FILLER                          PIC  X(13)                   ELCDTECX
  1357                                     VALUE 'MISCELLANEOUS'.       ELCDTECX
  1358 01  CLAS-MISC.                                                   ELCDTECX
  1359     12  DTE-FICH                    PIC  X.                      ELCDTECX
  1360         88  FICH-NO                 VALUE SPACE.                 ELCDTECX
  1361         88  FICH-ONLY               VALUE '1'.                   ELCDTECX
  1362         88  FICH-BOTH               VALUE '2'.                   ELCDTECX
  1363     12  FICH-OPEN                   PIC  X.                      ELCDTECX
  1364     12  REPT-OPEN                   PIC  X.                      ELCDTECX
  1365     12  DTE-PGM-OPT                 PIC  9.                         CL**5
  1366     12  DTE-PRT-OPT                 PIC  X.                      ELCDTECX
  1367     12  DTE-FMT-OPT                 PIC  9.                      ELCDTECX
  1368     12  DTE-PRC-OPT                 PIC  9.                      ELCDTECX
  1369     12  DTE-TOT-OPT                 PIC  9.                      ELCDTECX
  1370     12  CLAS-LOOK                   PIC  XX.                     ELCDTECX
  1371     12  DTE-TOT-LINES               PIC S9(8)      COMP.         ELCDTECX
  1372     12  STATE-L                     PIC  XX.                     ELCDTECX
  1373     12  CLAS-CN                     PIC  99.                     ELCDTECX
  1374     12  CLAS-CO                     PIC  99.                     ELCDTECX
  1375     12  DTE-VSAM-FLAGS                              VALUE ZERO.  ELCDTECX
  1376         16  DTE-F-1                 PIC  X.                      ELCDTECX
  1377         16  DTE-F-2                 PIC  X.                      ELCDTECX
  1378     12  DTE-ABEND-WORK.                                          ELCDTECX
  1379         16  DTE-ABEND-CD-1          PIC  XX         VALUE SPACES.ELCDTECX
  1380         16  DTE-ABEND-CD-2          PIC  XX         VALUE SPACES.ELCDTECX
  1381                                                                  ELCDTECX
  1382 01  FILLER                          PIC  X(12)                   ELCDTECX
  1383                                     VALUE 'WORKING DATE'.        ELCDTECX
  1384 01  WS-DATE-AND-TIME.                                            ELCDTECX
  1385     12  WS-ACCEPT-DATE.                                          ELCDTECX
  1386         16  WS-AD-YY                PIC  99.                     ELCDTECX
  1387         16  WS-AD-MM                PIC  99.                     ELCDTECX
  1388         16  WS-AD-DD                PIC  99.                     ELCDTECX
  1389     12  WS-CURRENT-DATE.                                         ELCDTECX
  1390         16  WS-CD-MM                PIC  99.                     ELCDTECX
  1391         16  FILLER                  PIC  X          VALUE '/'.   ELCDTECX
  1392         16  WS-CD-DD                PIC  99.                     ELCDTECX
  1393         16  FILLER                  PIC  X          VALUE '/'.   ELCDTECX
  1394         16  WS-CD-YY                PIC  99.                     ELCDTECX
  1395     12  WS-TIME-OF-DAY.                                          ELCDTECX
  1396         16  WS-TIME                 PIC  9(6).                   ELCDTECX
  1397         16  WS-HUN-SEC              PIC  99.                     ELCDTECX
  1398                                                                  ELCDTECX
  1399 01  FILLER                          PIC  X(12)                   ELCDTECX
  1400                                     VALUE 'CARRIER CLMS'.        ELCDTECX
  1401 01  CARRIER-OPT-CLAIM-DATA.                                      ELCDTECX
  1402     12  CARRIER-FLDS                OCCURS 25 TIMES.             ELCDTECX
  1403         16  CARRIER-IBNR-SWITCH     PIC  X.                         CL**5
  1404         16  CARRIER-IBNR-PERCENT    PIC S9V9(4) COMP-3.             CL**6
  1405         16  CARRIER-CIDA-DISCOUNT   PIC S9V9(4) COMP-3.             CL**6
  1406                                                                  ELCDTECX
  1407 01  FILLER                          PIC  X(10)                   ELCDTECX
* Micro Focus Server Express         V5.1 revision 000 06-Oct-15 17:18 Page  28
* ECS025.cbl (/apps/prod/cid1p/copy/ELCDTECX)
  1408                                     VALUE 'STATE TLRS'.          ELCDTECX
  1409 01  STATE-TARGET-LOSS-RATIOS.                                    ELCDTECX
  1410     12  STATE-TLR-FLD               OCCURS 75 TIMES.             ELCDTECX
  1411         16  STATE-TARGET-LOSS-RATIO PIC S9V9(4) COMP-3.             CL**6
  1412         16  STATE-CALC-INTEREST     PIC S9V9(4) COMP-3.             CL**6
  1413                                                                  ELCDTECX
  1414 01  FILLER                          PIC  X(13)                   ELCDTECX
  1415                                     VALUE 'BUSINESS TLRS'.       ELCDTECX
  1416 01  BUSINESS-TRGT-LOSS-RATIO-MODS.                               ELCDTECX
  1417     12  BUS-TLRM-FLD                OCCURS 99 TIMES.             ELCDTECX
  1418         16  BUS-TRGT-LOSS-RATIO-MOD PIC S9V9(4) COMP-3.             CL**6
  1419                                                                  ELCDTECX
  1420 01  FILLER                          PIC  X(13)                   ELCDTECX
  1421                                     VALUE 'MISC CLM DATA'.       ELCDTECX
  1422 01  MISC-OPT-CLM-RSV-DATA.                                       ELCDTECX
  1423     12  COMPANY-CALC-INTEREST       PIC S9V9(4) COMP-3.             CL**6
  1424     12  COMPANY-CIDA-DISCOUNT       PIC S9V9(4) COMP-3.             CL**6
  1425     12  COMPANY-CRDB-TABLE-SELECTION                             ELCDTECX
  1426                                     PIC  X.                         CL**5
  1427     12  COMPANY-IBNR-AH-FACTOR      PIC S9V9(4) COMP-3.             CL**6
  1428     12  COMPANY-IBNR-LAG-MONTH      PIC S999    COMP-3.             CL**6
  1429     12  COMPANY-IBNR-LIFE-FACTOR    PIC S9V9(4) COMP-3.             CL**6
  1430     12  COMPANY-OPTION-START-DATE   PIC  XX.                        CL**5
  1431     12  INDEXBS                     PIC S9(4)   COMP.               CL**6
  1432     12  INDEXCA                     PIC S9(4)   COMP.               CL**6
  1433     12  INDEXST                     PIC S9(4)   COMP.               CL**6
  1434     12  FILLER                      PIC  X(75).                  ELCDTECX
  1435******************************************************************ELCDTECX
  1436*01  MISC-CARR-PCT-DATA.                                          00001521
  1437*    12  DD-CARR1-UEP-PCT            PIC S9V9(4) COMP-3.          00001522
  1438*    12  DD-CARR1-R78-PCT            PIC S9V9(4) COMP-3.          00001522
  1439*    12  DD-CARR1-PRO-PCT            PIC S9V9(4) COMP-3.          00001522
  1440*    12  DD-CARR2-UEP-PCT            PIC S9V9(4) COMP-3.          00001522
  1441*    12  DD-CARR2-R78-PCT            PIC S9V9(4) COMP-3.          00001522
  1442*    12  DD-CARR2-PRO-PCT            PIC S9V9(4) COMP-3.          00001522
  1443******************************************************************ELCDTECX
  1444                                                                  ECS025
* 1445                             COPY ELCDTEVR.                       ECS025
  1446***************************************************************** 04/15/98
  1447*                                                                *ELCDTEVR
  1448*                                                                *ELCDTEVR
  1449*                            ELCDTEVR.                           *   LV003
  1450*           COPYBOOK REVIEWED FOR YEAR 2000 COMPLIANCE               CL**3
  1451*                            VMOD=2.001                          *   CL**2
  1452*                                                                *ELCDTEVR
  1453*   WORKING STORAGE FOR DATE VARIABLES CREATED                   *ELCDTEVR
  1454*   FOR THE YEAR 2000 DATE MODIFICATION                          *ELCDTEVR
  1455*                                                                *ELCDTEVR
  1456******************************************************************ELCDTEVR
  1457 01  WS-DATE-CARD-DATE.                                           ELCDTEVR
  1458     05  WS-RUN-DATE.                                             ELCDTEVR
  1459         10  FILLER                  PIC  9(03).                  ELCDTEVR
  1460         10  RUN-CCYY                PIC  9(04).                  ELCDTEVR
  1461         10  RUN-CCYR  REDEFINES  RUN-CCYY.                       ELCDTEVR
  1462             15  RUN-CC              PIC  99.                     ELCDTEVR
  1463             15  RUN-YR              PIC  99.                     ELCDTEVR
  1464         10  RUN-MO                  PIC  99.                     ELCDTEVR
  1465         10  RUN-DA                  PIC  99.                     ELCDTEVR
* Micro Focus Server Express         V5.1 revision 000 06-Oct-15 17:18 Page  29
* ECS025.cbl (/apps/prod/cid1p/copy/ELCDTEVR)
  1466     05  WS-RUN-DATE-N REDEFINES                                     CL**2
  1467            WS-RUN-DATE              PIC 9(11).                      CL**2
  1468     05  WS-EP-DT.                                                ELCDTEVR
  1469         10  FILLER                  PIC  9(03).                  ELCDTEVR
  1470         10  EP-CCYY                 PIC  9(04).                  ELCDTEVR
  1471         10  EP-CCYR  REDEFINES  EP-CCYY.                         ELCDTEVR
  1472             15  EP-CC               PIC  99.                     ELCDTEVR
  1473             15  EP-YR               PIC  99.                     ELCDTEVR
  1474         10  EP-MO                   PIC  99.                     ELCDTEVR
  1475         10  EP-DA                   PIC  99.                     ELCDTEVR
  1476     05  WS-EP-DT-N REDEFINES                                        CL**2
  1477            WS-EP-DT                 PIC 9(11).                      CL**2
  1478     05  WS-DTE-CONV-DT.                                             CL**4
  1479         10  FILLER                  PIC  9(03).                     CL**4
  1480         10  DTE-CONV-CCYY           PIC  9(04).                     CL**4
  1481         10  DTE-CONV-CCYR  REDEFINES  DTE-CONV-CCYY.                CL**4
  1482             15  DTE-CONV-CC         PIC  99.                        CL**4
  1483             15  DTE-CONV-YR         PIC  99.                        CL**4
  1484         10  DTE-CONV-MO             PIC  99.                        CL**4
  1485         10  DTE-CONV-DA             PIC  99.                        CL**4
  1486     05  WS-DTE-CONV-DT-N REDEFINES                                  CL**4
  1487            WS-DTE-CONV-DT           PIC  9(11).                     CL**4
  1488 01  WS-BALANCE-FORWARD-DATE.                                     ELCDTEVR
  1489     05  WS-BF-LAST-ACTIVITY-DATE.                                ELCDTEVR
  1490         10  FILLER                            PIC 999.           ELCDTEVR
  1491         10  BF-ACT-CCYY                       PIC 9(04).         ELCDTEVR
  1492         10  BF-ACT-CCYR  REDEFINES  BF-ACT-CCYY.                 ELCDTEVR
  1493             15  BF-ACT-CC                     PIC 99.            ELCDTEVR
  1494             15  BF-ACT-YEAR                   PIC 99.            ELCDTEVR
  1495         10  BF-ACT-MONTH                      PIC 99.            ELCDTEVR
  1496         10  BF-ACT-DAY                        PIC 99.            ELCDTEVR
  1497     05  WS-BF-LAST-ACTIVITY-DATE-N REDEFINES                        CL**2
  1498            WS-BF-LAST-ACTIVITY-DATE           PIC 9(11).            CL**2
  1499     05  WS-BF-CURRENT-LAST-STMT-DT.                              ELCDTEVR
  1500         10  FILLER                            PIC 999.           ELCDTEVR
  1501         10  BF-CURRENT-LAST-STMT-CEN          PIC 99.            ELCDTEVR
  1502         10  BF-CURRENT-LAST-STMT-YEAR         PIC 99.            ELCDTEVR
  1503         10  BF-CURRENT-LAST-STMT-MONTH        PIC 99.            ELCDTEVR
  1504         10  BF-CURRENT-LAST-STMT-DAY          PIC 99.            ELCDTEVR
  1505     05  WS-BF-CURRENT-LAST-STMT-DT-N REDEFINES                      CL**2
  1506            WS-BF-CURRENT-LAST-STMT-DT        PIC 9(11).             CL**2
  1507 01  WS-ADD-CONF-TRANSACTIONS-DTE.                                ELCDTEVR
  1508     05  WS-AC-CERT-EFF-DATE.                                     ELCDTEVR
  1509         10  FILLER                            PIC 999.           ELCDTEVR
  1510         10  AC-CERT-CCYY                      PIC 9(04).         ELCDTEVR
  1511         10  AC-CERT-CCYR  REDEFINES  AC-CERT-CCYY.               ELCDTEVR
  1512             15  AC-CERT-CC                    PIC 99.            ELCDTEVR
  1513             15  AC-CERT-YR                    PIC 99.            ELCDTEVR
  1514         10  AC-CERT-MO                        PIC 99.            ELCDTEVR
  1515         10  AC-CERT-DA                        PIC 99.            ELCDTEVR
  1516     05  WS-AC-CERT-EFF-DATE-N REDEFINES                             CL**2
  1517            WS-AC-CERT-EFF-DATE                PIC 9(11).            CL**2
  1518     05  WS-AC-LIFE-CANCEL-DATE.                                  ELCDTEVR
  1519         10  FILLER                            PIC 999.           ELCDTEVR
  1520         10  AC-LIFE-CANCEL-CCYY               PIC 9(04).         ELCDTEVR
  1521         10  AC-LIFE-CANCEL-CCYR REDEFINES AC-LIFE-CANCEL-CCYY.   ELCDTEVR
  1522             15  AC-LIFE-CANCEL-CC             PIC 99.            ELCDTEVR
  1523             15  AC-LIFE-CANCEL-YR             PIC 99.            ELCDTEVR
* Micro Focus Server Express         V5.1 revision 000 06-Oct-15 17:18 Page  30
* ECS025.cbl (/apps/prod/cid1p/copy/ELCDTEVR)
  1524         10  AC-LIFE-CANCEL-MO                 PIC 99.            ELCDTEVR
  1525         10  AC-LIFE-CANCEL-DA                 PIC 99.            ELCDTEVR
  1526     05  WS-AC-LIFE-CANCEL-DATE-N REDEFINES                          CL**2
  1527            WS-AC-LIFE-CANCEL-DATE             PIC 9(11).            CL**2
  1528     05  WS-AC-AH-CANCEL-DATE.                                    ELCDTEVR
  1529         10  FILLER                            PIC 999.           ELCDTEVR
  1530         10  AC-AH-CANCEL-CCYY                 PIC 9(04).         ELCDTEVR
  1531         10  AC-AH-CANCEL-CCYR  REDEFINES  AC-AH-CANCEL-CCYY.     ELCDTEVR
  1532             15  AC-AH-CANCEL-CC               PIC 99.            ELCDTEVR
  1533             15  AC-AH-CANCEL-YR               PIC 99.            ELCDTEVR
  1534         10  AC-AH-CANCEL-MO                   PIC 99.            ELCDTEVR
  1535         10  AC-AH-CANCEL-DA                   PIC 99.            ELCDTEVR
  1536     05  WS-AC-AH-CANCEL-DATE-N REDEFINES                            CL**2
  1537            WS-AC-AH-CANCEL-DATE               PIC 9(11).            CL**2
  1538 01  WS-RATE-RECORD.                                              ELCDTEVR
  1539         05  WS-RT-EXPIRY-DATE.                                   ELCDTEVR
  1540             10  FILLER                        PIC 999.           ELCDTEVR
  1541             10  RT-EXP-CCYY                   PIC 9(04).         ELCDTEVR
  1542             10  RT-EXP-CCYR  REDEFINES  RT-EXP-CCYY.             ELCDTEVR
  1543                 15  RT-EXP-CC                 PIC 99.            ELCDTEVR
  1544                 15  RT-EXP-YR                 PIC 99.            ELCDTEVR
  1545             10  RT-EXP-MO                     PIC 99.            ELCDTEVR
  1546             10  RT-EXP-DA                     PIC 99.            ELCDTEVR
  1547         05  WS-RT-EXPIRY-DATE-N REDEFINES                           CL**2
  1548                WS-RT-EXPIRY-DATE              PIC 9(11).            CL**2
  1549                                                                  ECS025
* Micro Focus Server Express         V5.1 revision 000 06-Oct-15 17:18 Page  31
* ECS025.cbl
  1551 01  BINARY-WORK-AREA    COMP.                                    ECS025
  1552     12  X1          PIC S999        VALUE +0.                    ECS025
  1553     12  X2          PIC S999        VALUE +0.                    ECS025
  1554     12  X3          PIC S999        VALUE +0.                    ECS025
  1555     12  X4          PIC S999        VALUE +0.                    ECS025
  1556     12  B0          PIC S999        VALUE +0.                    ECS025
  1557     12  B1          PIC S999        VALUE +1.                    ECS025
  1558     12  B55         PIC S999        VALUE +55.                   ECS025
  1559     12  B2          PIC S999        VALUE +2.                    ECS025
  1560     12  B3          PIC S999        VALUE +3.                    ECS025
  1561     12  B4          PIC S999        VALUE +4.                    ECS025
  1562                                                                  ECS025
  1563 01  COMP-3-WORK-AREA    COMP-3.                                  ECS025
  1564     12  LN-CT       PIC S9(5)       VALUE +99.                   ECS025
  1565     12  PG-NO       PIC S9(5)       VALUE +0.                    ECS025
  1566     12  K1          PIC S9(5)       VALUE +1.                    ECS025
  1567     12  LN-MX       PIC S9(5)   VALUE +56.                       ECS025
  1568     12  DET-NET-DUE     PIC S9(5)V99    VALUE +0.                ECS025
  1569     12  K-1         PIC S9(5)       VALUE -1.                    ECS025
  1570     12  T-LP        PIC S9(7)V99    VALUE +0.                    ECS025
  1571     12  T-LC        PIC S9(7)V99    VALUE +0.                    ECS025
  1572     12  T-AP        PIC S9(7)V99    VALUE +0.                    ECS025
  1573     12  T-AC        PIC S9(7)V99    VALUE +0.                    ECS025
  1574     12  LCOM        PIC S9(5)V99    VALUE +0.                    ECS025
  1575     12  ACOM        PIC S9(5)V99    VALUE +0.                    ECS025
  1576     12  L-PREM      PIC S9(7)V99    VALUE +0.                    ECS025
  1577     12  A-PREM      PIC S9(7)V99    VALUE +0.                    ECS025
  1578     12  ZEV5        PIC SV9(5)      VALUE +.0.                   ECS025
  1579     12  NTDUE       PIC S9(7)V99    VALUE +0.                    ECS025
  1580     12  S-LP        PIC S9(7)V99    VALUE +0.                    ECS025
  1581     12  S-LC        PIC S9(7)V99    VALUE +0.                    ECS025
  1582     12  S-AP        PIC S9(7)V99    VALUE +0.                    ECS025
  1583     12  S-AC        PIC S9(7)V99    VALUE +0.                    ECS025
  1584     12  S-ND        PIC S9(7)V99    VALUE +0.                    ECS025
  1585     12  D-LC        PIC S9(5)V99    VALUE +0.                    ECS025
  1586     12  D-AC        PIC S9(5)V99    VALUE +0.                    ECS025
  1587     12  DIST-TOTALS  OCCURS 3.                                   ECS025
  1588         16  T-CNT       PIC S9(7).                               ECS025
  1589         16  T-AGE       PIC S9(9).                               ECS025
  1590         16  T-LT        PIC S9(9).                               ECS025
  1591         16  T-LA        PIC S9(7)V99.                            ECS025
  1592         16  T-LCNT      PIC S9(7).                               ECS025
  1593         16  T-AT        PIC S9(9).                               ECS025
  1594         16  T-AA        PIC S9(7)V99.                            ECS025
  1595         16  T-ACNT      PIC S9(7).                               ECS025
  1596                                                                  ECS025
* Micro Focus Server Express         V5.1 revision 000 06-Oct-15 17:18 Page  32
* ECS025.cbl
  1598 01  HD1.                                                         ECS025
  1599     12  FILLER      PIC X(51)   VALUE SPACES.                    ECS025
  1600     12  FILLER      PIC X(22)   VALUE 'ACCOUNT CURRENT REPORT'.  ECS025
  1601     12  HD1-DESC    PIC X(47)   VALUE SPACES.                    ECS025
  1602     12  FILLER      PIC X(6)    VALUE 'ECS025'.                  ECS025
  1603                                                                  ECS025
  1604 01  HD2.                                                         ECS025
  1605     12  FILLER      PIC X(47)   VALUE SPACES.                    ECS025
  1606     12  HD-CMP      PIC X(30).                                   ECS025
  1607     12  FILLER      PIC X(43)   VALUE SPACES.                    ECS025
  1608     12  HD-IPL      PIC X(8).                                    ECS025
  1609                                                                  ECS025
  1610 01  HD3.                                                         ECS025
  1611     12  FILLER      PIC X(53)   VALUE SPACES.                    ECS025
  1612     12  HD-DT1      PIC X(18).                                   ECS025
  1613     12  FILLER      PIC X(45)   VALUE SPACES.                    ECS025
  1614     12  FILLER      PIC X(5)    VALUE 'PAGE '.                   ECS025
  1615     12  D-HD-PG     PIC ZZ,ZZ9.                                  ECS025
  1616                                                                  ECS025
  1617 01  HD4.                                                         ECS025
  1618     12  FILLER      PIC X(11)  VALUE ' CARRIER - '.              ECS025
  1619     12  HDCO        PIC X.                                       ECS025
  1620     12  FILLER      PIC X(9)  VALUE ' GROUP - '.                 ECS025
  1621     12  HDGRP       PIC X(6).                                    ECS025
  1622     12  FILLER      PIC X(5)   VALUE SPACES.                     ECS025
  1623     12  HDST1       PIC X(8)   VALUE 'STATE - '.                 ECS025
  1624     12  HDST2       PIC XX.                                      ECS025
  1625     12  FILLER      PIC XX     VALUE SPACES.                     ECS025
  1626     12  HDST3       PIC X(20)  VALUE SPACES.                     ECS025
  1627                                                                  ECS025
  1628 01  HD5.                                                         ECS025
  1629     12  FILLER      PIC X(8)   VALUE ' ACCOUNT'.                 ECS025
  1630     12  FILLER      PIC X(20)  VALUE '   EFFECTIVE   CERT '.     ECS025
  1631     12  FILLER      PIC X(12)  VALUE '     TYPE   '.             ECS025
  1632     12  HD5LIFE1    PIC X(12)  VALUE '------------'.             ECS025
  1633     12  HD5LIFE2    PIC X(12).                                   ECS025
  1634     12  HD5LIFE3    PIC X(12)  VALUE '------------'.             ECS025
  1635     12  FILLER      PIC XXX    VALUE SPACES.                     ECS025
  1636     12  HD5AH1      PIC X(12)  VALUE '------------'.             ECS025
  1637     12  HD5AH2      PIC X(12).                                   ECS025
  1638     12  HD5AH3      PIC X(12)  VALUE '------------'.             ECS025
  1639     12  FILLER      PIC X(16)  VALUE '        NET DUE '.         ECS025
  1640                                                                  ECS025
  1641 01  HD6.                                                         ECS025
  1642     12  FILLER      PIC X(8)  VALUE ' NUMBER '.                  ECS025
  1643     12  FILLER      PIC X(20) VALUE '      DATE    NUMBER'.      ECS025
  1644     12  FILLER      PIC X(24) VALUE '            TRM TYPE    '.  ECS025
  1645     12  FILLER      PIC X(24) VALUE ' PREMIUM     COMMISSION '.  ECS025
  1646     12  FILLER      PIC X(24) VALUE '   TRM TYPE     PREMIUM '.  ECS025
  1647     12  FILLER      PIC X(24) VALUE '    COMMISSION          '.  ECS025
  1648     12  FILLER      PIC X(08) VALUE SPACES.                      ECS025
  1649                                                                  ECS025
  1650 01  HD7.                                                         ECS025
  1651     12  FILLER      PIC X(18)  VALUE '            STATE '.       ECS025
  1652     12  FILLER      PIC X(28)  VALUE '  STATE NAME            '. ECS025
  1653     12  HD7LIFE1    PIC X(09)  VALUE '---------'.                ECS025
  1654     12  HD7LIFE2    PIC X(12).                                   ECS025
  1655     12  HD7LIFE3    PIC X(09)  VALUE '---------'.                ECS025
* Micro Focus Server Express         V5.1 revision 000 06-Oct-15 17:18 Page  33
* ECS025.cbl
  1656     12  FILLER      PIC X(09)  VALUE SPACES.                     ECS025
  1657     12  HD7AH1      PIC X(09)  VALUE '---------'.                ECS025
  1658     12  HD7AH2      PIC X(12).                                   ECS025
  1659     12  HD7AH3      PIC X(09)  VALUE '---------'.                ECS025
  1660     12  FILLER      PIC X(16)  VALUE '        NET DUE '.         ECS025
  1661                                                                  ECS025
  1662 01  HD8.                                                         ECS025
  1663     12  FILLER      PIC X(8)  VALUE SPACES.                      ECS025
  1664     12  FILLER      PIC X(20) VALUE SPACES.                      ECS025
  1665     12  FILLER      PIC X(22) VALUE SPACES.                      ECS025
  1666     12  FILLER      PIC X(25) VALUE 'PREMIUM        COMMISSION'. ECS025
  1667     12  FILLER      PIC X(25) VALUE '               PREMIUM   '. ECS025
  1668     12  FILLER      PIC X(24) VALUE '    COMMISSION          '.  ECS025
  1669     12  FILLER      PIC X(08) VALUE SPACES.                      ECS025
  1670                                                                  ECS025
  1671 01  PRT-DETAIL.                                                  ECS025
  1672     05  D-AM-ACCOUNT    PIC X(10).                               ECS025
  1673     05  FILLER          PIC X(2)    VALUE SPACES.                ECS025
  1674     05  D-EFF-MO    PIC 99.                                      ECS025
  1675     05  D-MIN-1     PIC X.                                       ECS025
  1676     05  D-EFF-DA    PIC 99.                                      ECS025
  1677     05  D-MIN-2     PIC X.                                       ECS025
  1678     05  D-EFF-YR    PIC 99.                                      ECS025
  1679     05  FILLER      PIC X       VALUE SPACES.                    ECS025
  1680     05  D-CERT-NO   PIC X(11).                                   ECS025
  1681     05  FILLER      PIC X       VALUE SPACES.                    ECS025
  1682     05  D-TYPE      PIC X(6).                                    ECS025
  1683     05  FILLER      PIC X       VALUE SPACES.                    ECS025
  1684     05  D-LF-TERM   PIC Z99     BLANK WHEN ZERO.                 ECS025
  1685     05  FILLER      PIC X(2)    VALUE SPACES.                    ECS025
  1686     05  D-L-TYPE    PIC XX.                                      ECS025
  1687     05  FILLER      PIC X       VALUE SPACES.                    ECS025
  1688     05  D-LIFE-PR   PIC Z,ZZZ,ZZZ.99-  BLANK WHEN ZERO.          ECS025
  1689     05  FILLER      PIC XXXX    VALUE SPACES.                    ECS025
  1690     05  D-LIFE-CM   PIC ZZZ,ZZZ.99-    BLANK WHEN ZERO.          ECS025
  1691     05  FILLER      PIC XXX     VALUE SPACES.                    ECS025
  1692     05  D-AH-TERM   PIC Z99     BLANK WHEN ZERO.                 ECS025
  1693     05  FILLER      PIC X       VALUE SPACES.                    ECS025
  1694     05  D-AH-TYPE   PIC XXX.                                     ECS025
  1695     05  FILLER      PIC X       VALUE SPACES.                    ECS025
  1696     05  D-AH-PREM   PIC Z,ZZZ,ZZZ.99-  BLANK WHEN ZERO.          ECS025
  1697     05  FILLER      PIC XXXX    VALUE SPACES.                    ECS025
  1698     05  D-AH-CM     PIC ZZZ,ZZZ.99-    BLANK WHEN ZERO.          ECS025
  1699     05  FILLER      PIC X       VALUE SPACES.                    ECS025
  1700     05  D-NET-DUE   PIC ZZZ,ZZZ,ZZZ.99- BLANK WHEN ZERO.         ECS025
  1701     05  FILLER      PIC X(2)    VALUE SPACES.                    ECS025
  1702                                                                  ECS025
  1703 01  DTL REDEFINES PRT-DETAIL.                                    ECS025
  1704     12  FILLER      PIC X.                                       ECS025
  1705     12  P-ACCT      PIC X(10).                                   ECS025
  1706     12  FILLER      PIC XXXX.                                    ECS025
  1707     12  P-NAME.                                                  ECS025
  1708         16  P-SUB   PIC XX.                                      ECS025
  1709         16  FILLER  PIC XXXX.                                    ECS025
  1710         16  P-PIC   PIC X(24).                                   ECS025
  1711     12  FILLER      PIC XX.                                      ECS025
  1712     12  P-LPRM      PIC ZZZ,ZZZ,ZZZ.99- BLANK WHEN ZERO.         ECS025
  1713     12  FILLER      PIC X.                                       ECS025
* Micro Focus Server Express         V5.1 revision 000 06-Oct-15 17:18 Page  34
* ECS025.cbl
  1714     12  P-LCOM      PIC ZZ,ZZZ,ZZZ.99-  BLANK WHEN ZERO.         ECS025
  1715     12  FILLER      PIC X(9).                                    ECS025
  1716     12  P-APRM      PIC ZZZ,ZZZ,ZZZ.99- BLANK WHEN ZERO.         ECS025
  1717     12  FILLER      PIC X.                                       ECS025
  1718     12  P-ACOM      PIC ZZ,ZZZ,ZZZ.99-  BLANK WHEN ZERO.         ECS025
  1719     12  FILLER      PIC X.                                       ECS025
  1720     12  P-NET       PIC ZZZ,ZZZ,ZZZ.99-.                         ECS025
  1721                                                                  ECS025
  1722 01  RSK-DTL REDEFINES PRT-DETAIL.                                ECS025
  1723     12  FILLER      PIC X(27).                                   ECS025
  1724     12  RD-AGE      PIC X(12).                                   ECS025
  1725     12  FILLER      PIC X(7).                                    ECS025
  1726     12  RD-AA       PIC Z99.                                     ECS025
  1727     12  FILLER      PIC X(12).                                   ECS025
  1728     12  RD-LAT      PIC 999.                                     ECS025
  1729     12  FILLER      PIC XXXX.                                    ECS025
  1730     12  RD-LAA      PIC ZZ,ZZ9.                                  ECS025
  1731     12  FILLER      PIC X(11).                                   ECS025
  1732     12  RD-AAT      PIC 999.                                     ECS025
  1733     12  FILLER      PIC XXXX.                                    ECS025
  1734     12  RD-AAA      PIC ZZ,ZZ9.                                  ECS025
  1735     12  FILLER      PIC X(35).                                   ECS025
  1736                                                                  ECS025
  1737                                                                  ECS025
* Micro Focus Server Express         V5.1 revision 000 06-Oct-15 17:18 Page  35
* ECS025.cbl
  1739 01  MISC-WORK-AREA.                                              ECS025
  1740     12  THIS-CTL.                                                ECS025
  1741         16  THS-CO.                                              ECS025
  1742            18 THS-CARR  PIC X.                                   ECS025
  1743            18 THS-COMP  PIC X(6).                                ECS025
  1744         16  THS-ST      PIC XX.                                  ECS025
  1745         16  THS-ACCT    PIC X(10).                               ECS025
  1746         16  THS-EFF     PIC 9(11)  COMP-3.                       ECS025
  1747     12  LST-CTL     PIC X(18)  VALUE SPACES.                     ECS025
  1748     12  LST-NM      PIC X(30).                                   ECS025
  1749     12  LST-ACC     PIC X(10).                                   ECS025
  1750     12  LST-CO      PIC X(7).                                    ECS025
  1751     12  WK-ST.                                                   ECS025
  1752         16  W-ST    PIC 99.                                      ECS025
  1753     12  WK-AGT.                                                  ECS025
  1754         16  FILLER  PIC XX.                                      ECS025
  1755         16  WK-Z    PIC XXXX.                                    ECS025
  1756     12  SV-TYP      PIC XXX.                                     ECS025
  1757     12  THS-CTL     PIC X(6).                                    ECS025
  1758     12  CK-CTL      PIC X(6)  VALUE SPACES.                      ECS025
  1759                                                                     CL**7
  1760 01  WK-DATE-EFF            PIC 9(11).                               CL*13
  1761 01  WK-DATE-EFF-RDEF  REDEFINES  WK-DATE-EFF.                       CL*13
  1762     05  FILLER             PIC 999.                                 CL**8
  1763     05  WK-CCYY.                                                    CL*11
  1764         10  WK-CC          PIC 99.                                  CL*11
  1765         10  WK-YY          PIC 99.                                  CL*11
  1766     05  WK-MM              PIC 99.                                  CL*11
  1767     05  WK-DD              PIC 99.                                  CL*11
  1768                                                                     CL**8
  1769 01  SUB-TYPE        PIC 9   VALUE ZERO.                          ECS025
  1770                                                                  ECS025
  1771 01  STATE-TOTAL-AREA.                                            ECS025
  1772     12  ST-TOTALS OCCURS 100.                                    ECS025
  1773         16  ST-LP       PIC S9(7)V99   COMP-3.                   ECS025
  1774         16  ST-LC       PIC S9(7)V99   COMP-3.                   ECS025
  1775         16  ST-AP       PIC S9(7)V99   COMP-3.                   ECS025
  1776         16  ST-AC       PIC S9(7)V99   COMP-3.                   ECS025
  1777         16  ST-ND       PIC S9(7)V99   COMP-3.                   ECS025
  1778         16  ST-ID       PIC X.                                   ECS025
  1779                                                                  ECS025
  1780 01  CARRIER-TOTAL-AREA.                                          ECS025
  1781     03 CA-LPRM     PIC S9(7)V99 COMP-3.                          ECS025
  1782     03 CA-LCOM     PIC S9(7)V99 COMP-3.                          ECS025
  1783     03 CA-APRM     PIC S9(7)V99 COMP-3.                          ECS025
  1784     03 CA-ACOM     PIC S9(7)V99 COMP-3.                          ECS025
  1785     03 CA-NET      PIC S9(7)V99 COMP-3.                          ECS025
  1786                                                                  ECS025
  1787 01  SV-RDX      PIC X(168).                                      ECS025
  1788                                                                  ECS025
  1789 01  HD-RD.                                                       ECS025
  1790     12  FILLER  PIC X(20)   VALUE SPACES.                        ECS025
  1791     12  HD-TYP  PIC X(8)    VALUE SPACES.                        ECS025
  1792     12  HD-CTL  PIC X(8)    VALUE SPACES.                        ECS025
  1793     12  HD-NME  PIC X(20)   VALUE SPACES.                        ECS025
  1794                                                                  ECS025
  1795 01  RD1.                                                         ECS025
  1796     12  FILLER  PIC X(46)   VALUE SPACES.                        ECS025
* Micro Focus Server Express         V5.1 revision 000 06-Oct-15 17:18 Page  36
* ECS025.cbl
  1797     12  FILLER  PIC X(31)   VALUE 'AVE.    LIFE  AVE.     AVE.'. ECS025
  1798     12  FILLER  PIC X(30)   VALUE 'A&H   AVE.     AVE'.          ECS025
  1799                                                                  ECS025
  1800 01  RD2.                                                         ECS025
  1801     12  FILLER  PIC X(46)   VALUE SPACES.                        ECS025
  1802     12  FILLER  PIC X(31)   VALUE 'AGE           TERM   AMOUNT'. ECS025
  1803     12  FILLER  PIC X(30)   VALUE '      TERM   BENEFIT'.        ECS025
  1804                                                                  ECS025
  1805 01  RDX-CALC-AREA.                                               ECS025
  1806     12  XDX-ID      PIC XXX.                                     ECS025
  1807     12  XDX-CTL     PIC X(6).                                    ECS025
  1808     12  FILLER      PIC X(18).                                   ECS025
  1809     12  XDX-AMTS   COMP-3,      OCCURS 3.                        ECS025
  1810         16  XDX-CNT     PIC S9(7).                               ECS025
  1811         16  XDX-AGE     PIC S9(9).                               ECS025
  1812         16  XDX-LT      PIC S9(9).                               ECS025
  1813         16  XDX-LA      PIC S9(7)V99.                            ECS025
  1814         16  XDX-LCNT    PIC S9(7).                               ECS025
  1815         16  XDX-AT      PIC S9(9).                               ECS025
  1816         16  XDX-AA      PIC S9(7)V99.                            ECS025
  1817         16  XDX-ACNT    PIC S9(7).                               ECS025
  1818                                                                  ECS025
* Micro Focus Server Express         V5.1 revision 000 06-Oct-15 17:18 Page  37
* ECS025.cbl
  1820 PROCEDURE DIVISION.                                              ECS025
  1821 0100-SET-START.                                                  ECS025
* 1822                             COPY ELCDTERX SUPPRESS.              ECS025
  2138                                                                  ECS025
  2139     IF DTE-PGM-OPT = '2'                                         ECS025
  2140         MOVE ' - (REPORTS DIRECT COMMISSIONS ONLY)' TO HD1-DESC. ECS025
  2141     IF DTE-PGM-OPT = '3'                                         ECS025
  2142         MOVE ' - (REPORTS OVERWRITE COMMISSIONS ONLY)'           ECS025
  2143                                                     TO HD1-DESC. ECS025
  2144                                                                  ECS025
  2145     MOVE COMPANY-NAME TO HD-CMP.                                 ECS025
  2146     MOVE ALPH-DATE TO HD-DT1.                                    ECS025
  2147     MOVE WS-CURRENT-DATE TO HD-IPL.                              ECS025
  2148                                                                  ECS025
  2149     OPEN INPUT RE-RECAP  AM-MSTR                                 ECS025
  2150          OUTPUT PRNTR.                                           ECS025
  2151                                                                  ECS025
  2152     IF AM-FILE-STATUS  = '00' OR '97'                            ECS025
  2153         NEXT SENTENCE                                            ECS025
  2154       ELSE                                                       ECS025
  2155         MOVE AM-FILE-STATUS TO WS-ABEND-FILE-STATUS              ECS025
  2156         MOVE AM-FILE-STATUS TO VSAM-ERR-CODE                     ECS025
  2157         MOVE VSAM-ERROR     TO WS-RETURN-CODE                    ECS025
  2158         MOVE 'ERACCT OPEN ERROR ' TO WS-ABEND-MESSAGE            ECS025
  2159         PERFORM ABEND-PGM.                                       ECS025
  2160                                                                  ECS025
  2161     MOVE SPACES TO STATE-TOTAL-AREA.                             ECS025
  2162                                                                  ECS025
  2163 0110-ZERO-CARR.                                                  ECS025
  2164     MOVE ZEROS TO CA-LPRM CA-LCOM CA-APRM CA-ACOM CA-NET.        ECS025
  2165                                                                  ECS025
  2166 0120-ZERO-DIST.                                                  ECS025
  2167     MOVE ZEROS TO T-CNT (1)                                      ECS025
  2168                   T-AGE (1)                                      ECS025
  2169                   T-LT  (1)                                      ECS025
  2170                   T-LA  (1)                                      ECS025
  2171                   T-LCNT (1)                                     ECS025
  2172                   T-AT  (1)                                      ECS025
  2173                   T-AA  (1)                                      ECS025
  2174                   T-ACNT (1).                                    ECS025
  2175                                                                  ECS025
  2176     MOVE DIST-TOTALS (1) TO DIST-TOTALS (2),                     ECS025
  2177                             DIST-TOTALS (3).                     ECS025
  2178                                                                  ECS025
* Micro Focus Server Express         V5.1 revision 000 06-Oct-15 17:18 Page  38
* ECS025.cbl
  2180 0140-GET-ACCT.                                                   ECS025
  2181     READ AM-MSTR.                                                ECS025
  2182                                                                  ECS025
  2183     IF AM-FILE-STATUS = '00' OR '10'                             ECS025
  2184         NEXT SENTENCE                                            ECS025
  2185     ELSE                                                         ECS025
  2186         MOVE AM-FILE-STATUS TO WS-ABEND-FILE-STATUS              ECS025
  2187         MOVE AM-FILE-STATUS TO VSAM-ERR-CODE                     ECS025
  2188         MOVE VSAM-ERROR     TO WS-RETURN-CODE                    ECS025
  2189         MOVE 'VSAM SEQUENCE ERROR ' TO WS-ABEND-MESSAGE          ECS025
  2190         PERFORM ABEND-PGM.                                       ECS025
  2191                                                                  ECS025
  2192     IF AM-FILE-STATUS = '10'                                     ECS025
  2193         MOVE HIGH-VALUES TO AM-CNTRL-1.                          ECS025
  2194                                                                  ECS025
  2195 0150-GET-ACCT-X.    EXIT.                                        ECS025
  2196                                                                  ECS025
  2197 0160-GET-DTL.                                                    ECS025
  2198     READ RE-RECAP                                                ECS025
  2199          AT END GO TO 0520-END-RTN.                              ECS025
  2200                                                                  ECS025
  2201     IF DE-RECORD-ID NOT = 'DE'                                   ECS025
  2202         GO TO 0160-GET-DTL.                                      ECS025
  2203                                                                  ECS025
  2204     IF DE-TRANS NOT = 'I' AND 'C'                                ECS025
  2205         GO TO 0160-GET-DTL.                                      ECS025
  2206                                                                  ECS025
  2207     IF DE-ISSUE                                                  ECS025
  2208        IF DE-LF-STAT-CDE = ('5' OR '9')                          ECS025
  2209           GO TO 0160-GET-DTL.                                    ECS025
  2210                                                                  ECS025
  2211     IF DE-ISSUE                                                  ECS025
  2212        IF DE-AH-STAT-CDE = ('5' OR '9')                          ECS025
  2213           GO TO 0160-GET-DTL.                                    ECS025
  2214                                                                  ECS025
  2215     IF DE-REIN NOT = SPACES                                      ECS025
  2216        GO TO 0160-GET-DTL.                                       ECS025
  2217                                                                  ECS025
  2218     MOVE DE-CARRIER  TO THS-CARR.                                ECS025
  2219     MOVE DE-GROUPING TO THS-COMP.                                ECS025
  2220     MOVE DE-STATE    TO THS-ST.                                  ECS025
  2221     MOVE DE-ACCOUNT  TO THS-ACCT.                                ECS025
  2222     MOVE DE-EFF      TO THS-EFF.                                 ECS025
  2223                                                                  ECS025
  2224 0170-MAIN-CHECK.                                                 ECS025
  2225     IF LST-CTL = SPACES                                          ECS025
  2226         MOVE THIS-CTL TO LST-CTL.                                ECS025
  2227                                                                  ECS025
  2228     STRING AM-CARRIER DELIMITED BY SIZE                          ECS025
  2229            AM-GROUPING DELIMITED BY SIZE                         ECS025
  2230     INTO WS-AM-CO.                                               ECS025
  2231                                                                  ECS025
  2232     IF THS-CO = WS-AM-CO AND                                     ECS025
  2233        THS-ST = AM-STATE AND                                     ECS025
  2234        THS-ACCT = AM-ACCOUNT AND                                 ECS025
  2235        THS-EFF LESS AM-EXPIRE-DT GO TO 0190-ML1.                 ECS025
  2236                                                                  ECS025
  2237     IF (THIS-CTL GREATER AM-MSTR-CNTRL) OR                          CL**5
* Micro Focus Server Express         V5.1 revision 000 06-Oct-15 17:18 Page  39
* ECS025.cbl
  2238        (THIS-CTL = AM-MSTR-CNTRL)                                   CL**6
  2239         PERFORM 0140-GET-ACCT THRU 0150-GET-ACCT-X               ECS025
  2240         GO TO 0170-MAIN-CHECK.                                   ECS025
  2241                                                                  ECS025
  2242     MOVE THS-EFF                TO  WK-DATE-EFF.                    CL**9
  2243     DISPLAY 'ACCOUNT MISSING-' ' CARR ' THS-CARR ' GROUP '          CL**5
  2244             THS-COMP ' ST ' THS-ST ' ACCT ' THS-ACCT                CL**5
  2245             ' EFF' WK-CCYY WK-MM WK-DD.                             CL**9
  2246                                                                     CL**5
  2247     MOVE '0302' TO WS-RETURN-CODE.                               ECS025
  2248     PERFORM ABEND-PGM.                                           ECS025
  2249                                                                  ECS025
* Micro Focus Server Express         V5.1 revision 000 06-Oct-15 17:18 Page  40
* ECS025.cbl
  2251 0190-ML1.                                                        ECS025
  2252                                                                  ECS025
  2253     MOVE AM-NAME     TO LST-NM.                                  ECS025
  2254     MOVE AM-ACCOUNT  TO LST-ACC.                                 ECS025
  2255     MOVE  DE-LF-PRM  TO  L-PREM.                                 ECS025
  2256     ADD   DE-LF-PRM-ALT  TO  L-PREM.                             ECS025
  2257     MOVE  DE-AH-PRM  TO  A-PREM.                                 ECS025
  2258                                                                  ECS025
  2259     IF DE-CANCEL  COMPUTE L-PREM = DE-LF-RFND * K-1              ECS025
  2260                   COMPUTE A-PREM = DE-AH-RFND * K-1.             ECS025
  2261                                                                  ECS025
  2262     ADD L-PREM TO T-LP.                                          ECS025
  2263     ADD A-PREM TO T-AP.                                          ECS025
  2264                                                                  ECS025
  2265     MOVE  +0   TO  X1.                                           ECS025
  2266                                                                  ECS025
  2267 0200-CALC-COMM-LOOP.                                             ECS025
  2268                                                                  ECS025
  2269     ADD  +1  TO  X1.                                             ECS025
  2270                                                                  ECS025
  2271     IF X1 GREATER THAN +10                                       ECS025
  2272         GO TO 0210-CALC-COMM-X.                                  ECS025
  2273                                                                  ECS025
  2274     IF DE-AGT-TYPE (X1) = ' ' OR 'W' OR 'R' OR 'T'               ECS025
  2275         GO TO 0200-CALC-COMM-LOOP.                               ECS025
  2276                                                                  ECS025
  2277     IF DTE-PGM-OPT  =  '2'                                       ECS025
  2278        IF DE-AGT-TYPE (X1) NOT EQUAL 'C' AND 'D'                 ECS025
  2279            GO TO 0200-CALC-COMM-LOOP.                            ECS025
  2280                                                                  ECS025
  2281     IF DTE-PGM-OPT  =  '3'                                       ECS025
  2282        IF DE-AGT-TYPE (X1) NOT EQUAL 'O' AND 'P' and 'S'
  2283            GO TO 0200-CALC-COMM-LOOP.                            ECS025
  2284                                                                  ECS025
  2285     IF DE-AGT (X1) NOT = ZERO AND SPACES                         ECS025
  2286         COMPUTE LCOM ROUNDED = L-PREM  *  DE-L-PC (X1)           ECS025
  2287         COMPUTE ACOM ROUNDED = A-PREM  *  DE-A-PC (X1)           ECS025
  2288         ADD  LCOM  TO  T-LC                                      ECS025
  2289                        D-LC                                      ECS025
  2290         ADD  ACOM  TO  T-AC                                      ECS025
  2291                        D-AC.                                     ECS025
  2292                                                                  ECS025
  2293     GO TO 0200-CALC-COMM-LOOP.                                   ECS025
  2294                                                                  ECS025
  2295 0210-CALC-COMM-X.                                                ECS025
  2296                                                                  ECS025
  2297     PERFORM 0560-PRINT-DETAIL-LINE THRU 0570-LINE-EXIT.          ECS025
  2298                                                                  ECS025
  2299     PERFORM 0160-GET-DTL.                                        ECS025
  2300                                                                  ECS025
  2301     IF THIS-CTL LESS AM-CNTRL-1                                  ECS025
  2302         GO TO 0190-ML1.                                          ECS025
  2303                                                                  ECS025
  2304     IF THS-CO   = WS-AM-CO AND                                   ECS025
  2305        THS-ST   = AM-STATE AND                                   ECS025
  2306        THS-ACCT = AM-ACCOUNT                                     ECS025
  2307         GO TO 0170-MAIN-CHECK                                    ECS025
  2308        ELSE                                                      ECS025
* Micro Focus Server Express         V5.1 revision 000 06-Oct-15 17:18 Page  41
* ECS025.cbl
  2309         GO TO 0230-MAIN-BREAK.                                   ECS025
  2310                                                                  ECS025
* Micro Focus Server Express         V5.1 revision 000 06-Oct-15 17:18 Page  42
* ECS025.cbl
  2312 0230-MAIN-BREAK.                                                 ECS025
  2313     IF LN-CT LESS LN-MX                                          ECS025
  2314         GO TO 0250-PT-ACCT.                                      ECS025
  2315                                                                  ECS025
  2316 0240-PT-HDNG.                                                    ECS025
  2317     MOVE HD1              TO P-DATA.                             ECS025
  2318     MOVE '1'              TO X.                                  ECS025
  2319     PERFORM 0460-PRT-LINE THRU 0470-PRT-EXIT.                    ECS025
  2320     ADD K1 TO PG-NO.                                             ECS025
  2321     MOVE PG-NO            TO D-HD-PG.                            ECS025
  2322     MOVE HD2              TO P-DATA.                             ECS025
  2323     MOVE ' '              TO X.                                  ECS025
  2324     PERFORM 0460-PRT-LINE THRU 0470-PRT-EXIT.                    ECS025
  2325     MOVE HD3              TO P-DATA.                             ECS025
  2326     MOVE ' '              TO X.                                  ECS025
  2327     PERFORM 0460-PRT-LINE THRU 0470-PRT-EXIT.                    ECS025
  2328                                                                  ECS025
  2329     MOVE AM-CARRIER       TO HDCO.                               ECS025
  2330     MOVE AM-GROUPING      TO HDGRP.                              ECS025
  2331     MOVE AM-STATE         TO HDST2, WK-ST,                       ECS025
  2332     PERFORM 0490-LOCATE-STATE THRU 0510-LOCATE-XIT.              ECS025
  2333     MOVE STATE-PIC (W-ST) TO HDST3.                              ECS025
  2334     MOVE HD4              TO P-DATA.                             ECS025
  2335     MOVE '0'              TO X.                                  ECS025
  2336     PERFORM 0460-PRT-LINE THRU 0470-PRT-EXIT.                    ECS025
  2337                                                                  ECS025
  2338     IF LIFE-OVERRIDE-L12 = SPACES                                ECS025
  2339         MOVE SPACES            TO HD5LIFE1                       ECS025
  2340                                   HD5LIFE2                       ECS025
  2341                                   HD5LIFE3                       ECS025
  2342     ELSE                                                         ECS025
  2343         MOVE LIFE-OVERRIDE-L12 TO HD5LIFE2.                      ECS025
  2344                                                                  ECS025
  2345     IF AH-OVERRIDE-L12 = SPACES                                  ECS025
  2346         MOVE SPACES            TO HD5AH1                         ECS025
  2347                                   HD5AH2                         ECS025
  2348                                   HD5AH3                         ECS025
  2349     ELSE                                                         ECS025
  2350         MOVE AH-OVERRIDE-L12   TO HD5AH2.                        ECS025
  2351                                                                  ECS025
  2352     MOVE HD5 TO P-DATA.                                          ECS025
  2353     MOVE '0' TO X.                                               ECS025
  2354     PERFORM 0460-PRT-LINE THRU 0470-PRT-EXIT.                    ECS025
  2355                                                                  ECS025
  2356     MOVE HD6 TO P-DATA.                                          ECS025
  2357     MOVE ' ' TO X.                                               ECS025
  2358     PERFORM 0460-PRT-LINE THRU 0470-PRT-EXIT.                    ECS025
  2359                                                                  ECS025
  2360     MOVE SPACES TO P-DATA.                                       ECS025
  2361     MOVE ' ' TO X.                                               ECS025
  2362     PERFORM 0460-PRT-LINE THRU 0470-PRT-EXIT.                    ECS025
  2363                                                                  ECS025
  2364     MOVE 9 TO LN-CT.                                             ECS025
  2365                                                                  ECS025
  2366 0250-PT-ACCT.                                                    ECS025
  2367     MOVE SPACES            TO DTL.                               ECS025
  2368     MOVE ' *TOTAL*'        TO P-ACCT.                            ECS025
  2369     MOVE LST-NM            TO P-NAME.                            ECS025
* Micro Focus Server Express         V5.1 revision 000 06-Oct-15 17:18 Page  43
* ECS025.cbl
  2370     MOVE T-LP              TO P-LPRM.                            ECS025
  2371     MOVE T-LC              TO P-LCOM.                            ECS025
  2372     MOVE T-AP              TO P-APRM.                            ECS025
  2373     MOVE T-AC              TO P-ACOM.                            ECS025
  2374     COMPUTE NTDUE = T-LP + T-AP - T-AC - T-LC.                   ECS025
  2375     MOVE NTDUE             TO P-NET.                             ECS025
  2376     MOVE ' '               TO X.                                 ECS025
  2377     MOVE DTL               TO PRT.                               ECS025
  2378     PERFORM 0460-PRT-LINE THRU 0470-PRT-EXIT.                    ECS025
  2379     MOVE SPACES            TO DTL PRT.                           ECS025
  2380     MOVE '0'               TO X.                                 ECS025
  2381     PERFORM 0460-PRT-LINE THRU 0470-PRT-EXIT.                    ECS025
  2382     ADD 3 TO LN-CT.                                              ECS025
  2383                                                                  ECS025
  2384 0260-M-R-3.                                                      ECS025
  2385     PERFORM 0120-ZERO-DIST.                                      ECS025
  2386     ADD T-LP  TO S-LP.                                           ECS025
  2387     ADD T-LC  TO S-LC.                                           ECS025
  2388     ADD T-AP  TO S-AP.                                           ECS025
  2389     ADD T-AC  TO S-AC.                                           ECS025
  2390     ADD NTDUE TO S-ND.                                           ECS025
  2391     MOVE ZEROS TO T-LP  T-LC  T-AP  T-AC  NTDUE.                    CL**3
  2392                                                                  ECS025
  2393 0270-M-B-X.                                                      ECS025
  2394     EXIT.                                                        ECS025
  2395                                                                  ECS025
  2396 0280-M-B-XX.                                                     ECS025
  2397     IF THS-CO = WS-AM-CO AND                                     ECS025
  2398        THS-ST = AM-STATE                                         ECS025
  2399         GO TO 0170-MAIN-CHECK                                    ECS025
  2400        ELSE                                                      ECS025
  2401         GO TO 0300-STATE-BREAK.                                  ECS025
  2402                                                                  ECS025
* Micro Focus Server Express         V5.1 revision 000 06-Oct-15 17:18 Page  44
* ECS025.cbl
  2404 0300-STATE-BREAK.                                                ECS025
  2405     MOVE SPACES            TO DTL.                               ECS025
  2406     MOVE 'STATE TOTAL'     TO P-NAME.                            ECS025
  2407     MOVE S-LP              TO P-LPRM.                            ECS025
  2408     MOVE S-LC              TO P-LCOM.                            ECS025
  2409     MOVE S-AP              TO P-APRM.                            ECS025
  2410     MOVE S-AC              TO P-ACOM.                            ECS025
  2411     MOVE S-ND              TO P-NET.                             ECS025
  2412     MOVE '0'               TO X.                                 ECS025
  2413     MOVE DTL               TO PRT.                               ECS025
  2414     PERFORM 0460-PRT-LINE THRU 0470-PRT-EXIT.                    ECS025
  2415     MOVE SPACES            TO DTL PRT.                           ECS025
  2416     MOVE +99               TO LN-CT.                             ECS025
  2417     MOVE SPACES            TO LST-CTL.                           ECS025
  2418     MOVE S-LP              TO ST-LP (100).                       ECS025
  2419     MOVE S-AP              TO ST-AP (100).                       ECS025
  2420     MOVE S-LC              TO ST-LC (100).                       ECS025
  2421     MOVE S-AC              TO ST-AC (100).                       ECS025
  2422     MOVE S-ND              TO ST-ND (100).                       ECS025
  2423     MOVE ST-TOTALS (100)   TO ST-TOTALS (W-ST).                  ECS025
  2424     MOVE '*'               TO ST-ID (W-ST).                      ECS025
  2425     MOVE ZEROS             TO S-LP  S-LC  S-AP  S-AC  S-ND.         CL**3
  2426                                                                  ECS025
  2427 0310-S-B-X.                                                      ECS025
  2428     EXIT.                                                        ECS025
  2429                                                                  ECS025
  2430 0320-S-B-XX.                                                     ECS025
  2431     IF THS-CO = WS-AM-CO                                         ECS025
  2432         GO TO 0170-MAIN-CHECK                                    ECS025
  2433         ELSE                                                     ECS025
  2434         GO TO 0340-COMPANY-BREAK.                                ECS025
  2435                                                                  ECS025
* Micro Focus Server Express         V5.1 revision 000 06-Oct-15 17:18 Page  45
* ECS025.cbl
  2437 0340-COMPANY-BREAK.                                              ECS025
  2438     MOVE HD1               TO P-DATA.                            ECS025
  2439     MOVE '1'               TO X.                                 ECS025
  2440     PERFORM 0460-PRT-LINE THRU 0470-PRT-EXIT.                    ECS025
  2441     ADD K1                 TO PG-NO.                             ECS025
  2442     MOVE PG-NO             TO D-HD-PG.                           ECS025
  2443     MOVE HD2               TO P-DATA.                            ECS025
  2444     MOVE ' '               TO X.                                 ECS025
  2445     PERFORM 0460-PRT-LINE THRU 0470-PRT-EXIT.                    ECS025
  2446     MOVE HD3               TO P-DATA.                            ECS025
  2447     MOVE ' '               TO X.                                 ECS025
  2448     PERFORM 0460-PRT-LINE THRU 0470-PRT-EXIT.                    ECS025
  2449     MOVE SPACES            TO HDST1  HDST2  HDST3.               ECS025
  2450     MOVE HD4               TO P-DATA.                            ECS025
  2451     MOVE '0'               TO X.                                 ECS025
  2452     PERFORM 0460-PRT-LINE THRU 0470-PRT-EXIT.                    ECS025
  2453     MOVE 'STATE - '        TO HDST1.                             ECS025
  2454                                                                  ECS025
  2455     IF LIFE-OVERRIDE-L12 = SPACES                                ECS025
  2456         MOVE SPACES            TO HD7LIFE1                       ECS025
  2457                                   HD7LIFE2                       ECS025
  2458                                   HD7LIFE3                       ECS025
  2459     ELSE                                                         ECS025
  2460         MOVE LIFE-OVERRIDE-L12 TO HD7LIFE2.                      ECS025
  2461                                                                  ECS025
  2462     IF AH-OVERRIDE-L12 = SPACES                                  ECS025
  2463         MOVE SPACES            TO HD7AH1                         ECS025
  2464                                   HD7AH2                         ECS025
  2465                                   HD7AH3                         ECS025
  2466     ELSE                                                         ECS025
  2467         MOVE AH-OVERRIDE-L12   TO HD7AH2.                        ECS025
  2468                                                                  ECS025
  2469     MOVE HD7              TO P-DATA.                             ECS025
  2470     MOVE '0'              TO X.                                  ECS025
  2471     PERFORM 0460-PRT-LINE THRU 0470-PRT-EXIT.                    ECS025
  2472     MOVE HD8              TO P-DATA.                             ECS025
  2473     MOVE ' '              TO X.                                  ECS025
  2474     PERFORM 0460-PRT-LINE THRU 0470-PRT-EXIT.                    ECS025
  2475     MOVE ' '              TO X.                                  ECS025
  2476     MOVE SPACES           TO P-DATA.                             ECS025
  2477     PERFORM 0460-PRT-LINE THRU 0470-PRT-EXIT.                    ECS025
  2478     MOVE B1               TO X1.                                 ECS025
  2479                                                                  ECS025
  2480 0350-STATE-LOOP.                                                 ECS025
  2481     IF ST-ID (X1) = '*'                                          ECS025
  2482         GO TO 0380-ST-PRNT.                                      ECS025
  2483                                                                  ECS025
  2484 0360-ST-XIT.                                                     ECS025
  2485     ADD B1 TO X1.                                                ECS025
  2486     IF X1 NOT = B55                                              ECS025
  2487         GO TO 0350-STATE-LOOP.                                   ECS025
  2488                                                                  ECS025
  2489     GO TO 0390-STATE-TOTALS.                                     ECS025
  2490                                                                  ECS025
* Micro Focus Server Express         V5.1 revision 000 06-Oct-15 17:18 Page  46
* ECS025.cbl
  2492 0380-ST-PRNT.                                                    ECS025
  2493     MOVE SPACES           TO DTL.                                ECS025
  2494     MOVE ST-TOTALS (X1)   TO ST-TOTALS (100).                    ECS025
  2495     MOVE X1               TO W-ST.                               ECS025
  2496     MOVE 'TOTALS FOR  '   TO P-ACCT.                             ECS025
  2497     MOVE STATE-SUB (X1)   TO P-SUB.                              ECS025
  2498     MOVE STATE-PIC (X1)   TO P-PIC.                              ECS025
  2499     MOVE ST-LP (100)      TO P-LPRM.                             ECS025
  2500     MOVE ST-LC (100)      TO P-LCOM.                             ECS025
  2501     MOVE ST-AP (100)      TO P-APRM.                             ECS025
  2502     MOVE ST-AC (100)      TO P-ACOM.                             ECS025
  2503     MOVE ST-ND (100)      TO P-NET.                              ECS025
  2504     MOVE ' '              TO X.                                  ECS025
  2505     MOVE DTL              TO PRT.                                ECS025
  2506     PERFORM 0460-PRT-LINE THRU 0470-PRT-EXIT.                    ECS025
  2507     MOVE SPACES           TO DTL PRT.                            ECS025
  2508     ADD ST-LP (100)       TO S-LP.                               ECS025
  2509     ADD ST-LC (100)       TO S-LC.                               ECS025
  2510     ADD ST-AP (100)       TO S-AP.                               ECS025
  2511     ADD ST-AC (100)       TO S-AC.                               ECS025
  2512     ADD ST-ND (100)       TO S-ND.                               ECS025
  2513     GO TO 0360-ST-XIT.                                           ECS025
  2514                                                                  ECS025
  2515 0390-STATE-TOTALS.                                               ECS025
  2516     MOVE SPACES           TO DTL.                                ECS025
  2517     MOVE 'GROUP  TOTALS'  TO P-NAME.                             ECS025
  2518     MOVE S-LP             TO P-LPRM.                             ECS025
  2519     MOVE S-LC             TO P-LCOM.                             ECS025
  2520     MOVE S-AP             TO P-APRM.                             ECS025
  2521     MOVE S-AC             TO P-ACOM.                             ECS025
  2522     MOVE S-ND             TO P-NET.                              ECS025
  2523     MOVE '0'              TO X.                                  ECS025
  2524     MOVE DTL              TO PRT.                                ECS025
  2525     PERFORM 0460-PRT-LINE THRU 0470-PRT-EXIT.                    ECS025
  2526     MOVE SPACES           TO DTL PRT.                            ECS025
  2527     ADD S-LP              TO CA-LPRM.                            ECS025
  2528     ADD S-LC              TO CA-LCOM.                            ECS025
  2529     ADD S-AP              TO CA-APRM.                            ECS025
  2530     ADD S-AC              TO CA-ACOM.                            ECS025
  2531     ADD S-ND              TO CA-NET.                             ECS025
  2532     MOVE SPACES           TO STATE-TOTAL-AREA.                   ECS025
  2533     MOVE ZEROS            TO S-LP  S-LC  S-AP  S-AC  S-ND.          CL**4
  2534                                                                  ECS025
  2535 0400-C-B-X.                                                      ECS025
  2536     EXIT.                                                        ECS025
  2537                                                                  ECS025
  2538 0410-CARR-XX.                                                    ECS025
  2539     IF THS-CARR = AM-CARRIER                                     ECS025
  2540        GO TO 0170-MAIN-CHECK                                     ECS025
  2541         ELSE                                                     ECS025
  2542         GO TO 0430-CARRIER-TOTALS.                               ECS025
  2543                                                                  ECS025
* Micro Focus Server Express         V5.1 revision 000 06-Oct-15 17:18 Page  47
* ECS025.cbl
  2545 0430-CARRIER-TOTALS.                                             ECS025
  2546     MOVE SPACES           TO DTL.                                ECS025
  2547     MOVE 'CARRIER TOTALS' TO P-NAME.                             ECS025
  2548     MOVE CA-LPRM          TO P-LPRM.                             ECS025
  2549     MOVE CA-LCOM          TO P-LCOM.                             ECS025
  2550     MOVE CA-APRM          TO P-APRM.                             ECS025
  2551     MOVE CA-ACOM          TO P-ACOM.                             ECS025
  2552     MOVE CA-NET           TO P-NET.                              ECS025
  2553     MOVE '0'              TO X.                                  ECS025
  2554     MOVE DTL              TO PRT.                                ECS025
  2555     PERFORM 0460-PRT-LINE THRU 0470-PRT-EXIT.                    ECS025
  2556     MOVE SPACES           TO DTL PRT.                            ECS025
  2557     MOVE ZEROS            TO CA-LPRM CA-LCOM CA-APRM CA-ACOM     ECS025
  2558                              CA-NET.                             ECS025
  2559                                                                  ECS025
  2560 0440-CARR-XIT.  EXIT.                                            ECS025
  2561                                                                  ECS025
  2562 0450-C-B-XX.                                                     ECS025
  2563     GO TO 0170-MAIN-CHECK.                                       ECS025
  2564                                                                  ECS025
  2565 0460-PRT-LINE.                                                   ECS025
* 2566                             COPY ELCPRT2.                        ECS025
  2567******************************************************************04/15/98
  2568*                                                                *ELCPRT2
  2569*                                                                *ELCPRT2
  2570*                            ELCPRT2                             *   LV005
  2571*           COPYBOOK REVIEWED FOR YEAR 2000 COMPLIANCE               CL**5
  2572*                            VMOD=2.002                          *   CL**5
  2573*                                                                *   CL**4
  2574******************************************************************   CL**4
  2575                                                                     CL**4
  2576     IF DTE-FICH NOT = SPACE AND                                     CL**4
  2577        FICH-OPEN    = SPACE                                         CL**4
  2578         MOVE 'X'                TO  FICH-OPEN                       CL**4
  2579         OPEN OUTPUT FICH.                                           CL**4
  2580                                                                     CL**4
  2581     IF DTE-FICH NOT = SPACE                                         CL**4
  2582         MOVE X                  TO  P-CTL                           CL**4
  2583         WRITE FICH-REC FROM PRT.                                    CL**4
  2584                                                                     CL**4
  2585     IF DTE-FICH = SPACE OR '2'                                      CL**4
  2586       MOVE X                    TO  P-CTL                           CL**4
  2587       IF P-CTL = ' '                                                CL**4
  2588         WRITE PRT AFTER ADVANCING 1 LINE                            CL**4
  2589       ELSE                                                          CL**4
  2590         IF P-CTL = '0'                                              CL**4
  2591           WRITE PRT AFTER ADVANCING 2 LINES                         CL**4
  2592         ELSE                                                        CL**4
  2593           IF P-CTL = '-'                                            CL**4
  2594             WRITE PRT AFTER ADVANCING 3 LINES                       CL**4
  2595           ELSE                                                      CL**4
  2596             WRITE PRT AFTER ADVANCING PAGE.                         CL**4
  2597                                                                     CL**4
  2598******************************************************************   CL**4
  2599 0470-PRT-EXIT.                                                   ECS025
  2600     EXIT.                                                        ECS025
  2601                                                                  ECS025
* Micro Focus Server Express         V5.1 revision 000 06-Oct-15 17:18 Page  48
* ECS025.cbl
  2603 0490-LOCATE-STATE.                                               ECS025
  2604     MOVE ZEROS TO CLAS-INDEXS.                                   ECS025
  2605                                                                  ECS025
  2606 0500-LOCATE-LOOP.                                                ECS025
  2607     ADD +1 TO CLAS-INDEXS.                                       ECS025
  2608     IF WK-ST NOT = STATE-SUB (CLAS-INDEXS)                       ECS025
  2609        GO TO 0500-LOCATE-LOOP.                                   ECS025
  2610                                                                  ECS025
  2611     MOVE CLAS-INDEXS TO W-ST.                                    ECS025
  2612                                                                  ECS025
  2613 0510-LOCATE-XIT.  EXIT.                                          ECS025
  2614                                                                  ECS025
  2615 0520-END-RTN.                                                    ECS025
  2616     MOVE HIGH-VALUES TO THIS-CTL.                                ECS025
  2617     PERFORM 0230-MAIN-BREAK THRU 0270-M-B-X.                     ECS025
  2618     PERFORM 0300-STATE-BREAK THRU 0310-S-B-X.                    ECS025
  2619     PERFORM 0340-COMPANY-BREAK THRU 0400-C-B-X.                  ECS025
  2620     PERFORM 0430-CARRIER-TOTALS THRU 0440-CARR-XIT.              ECS025
  2621                                                                  ECS025
  2622     CLOSE RE-RECAP  AM-MSTR  PRNTR.                              ECS025
  2623                                                                  ECS025
  2624 0530-FICH-CLOSE.                                                 ECS025
* 2625                             COPY ELCPRTC.                        ECS025
  2626******************************************************************04/15/98
  2627*                                                                *ELCPRTC
  2628*                                                                *ELCPRTC
  2629*                            ELCPRTC.                            *   LV003
  2630*           COPYBOOK REVIEWED FOR YEAR 2000 COMPLIANCE               CL**3
  2631*                            VMOD=2.002                          *   CL**2
  2632*       CLOSE FICH FILE IF OPEN                                  *ELCPRTC
  2633*                                                                *ELCPRTC
  2634* NOTE- USE ELCPRTCX IF USING ELCPRT2X (ONLINE REPORT SAVE)      *   CL**2
  2635******************************************************************ELCPRTC
  2636                                                                  ELCPRTC
  2637      IF FICH-OPEN NOT = SPACE                                    ELCPRTC
  2638          CLOSE FICH.                                             ELCPRTC
  2639                                                                  ELCPRTC
  2640******************************************************************ELCPRTC
  2641 0540-EOJ-EXIT.                                                   ECS025
  2642                                                                  ECS025
  2643     GOBACK.                                                      ECS025
  2644                                                                  ECS025
* Micro Focus Server Express         V5.1 revision 000 06-Oct-15 17:18 Page  49
* ECS025.cbl
  2646 0560-PRINT-DETAIL-LINE.                                          ECS025
  2647     IF LN-CT GREATER THAN LN-MX                                  ECS025
  2648         PERFORM 0240-PT-HDNG.                                    ECS025
  2649                                                                  ECS025
  2650     MOVE DE-ACCOUNT           TO D-AM-ACCOUNT.                   ECS025
  2651     MOVE DE-EFF               TO WK-DATE-EFF.                    ECS025
  2652     MOVE WK-YY                TO D-EFF-YR.                       ECS025
  2653     MOVE WK-MM                TO D-EFF-MO.                       ECS025
  2654     MOVE WK-DD                TO D-EFF-DA.                       ECS025
  2655     MOVE '-'                  TO D-MIN-1  D-MIN-2.               ECS025
  2656     MOVE DE-CERT              TO D-CERT-NO.                      ECS025
  2657                                                                  ECS025
  2658     IF DE-CANCEL MOVE 'CANCEL' TO D-TYPE ELSE                    ECS025
  2659         MOVE 'ISSUE '         TO D-TYPE.                         ECS025
  2660                                                                  ECS025
  2661     MOVE DE-LF-TERM           TO D-LF-TERM.                      ECS025
  2662                                                                  ECS025
  2663     IF DE-LF-TYPE = ZEROS                                        ECS025
  2664         MOVE SPACES           TO D-L-TYPE                        ECS025
  2665     ELSE                                                         ECS025
  2666         MOVE DE-LF-TYPE       TO D-L-TYPE.                       ECS025
  2667                                                                  ECS025
  2668     MOVE L-PREM               TO D-LIFE-PR.                      ECS025
  2669     MOVE D-LC                 TO D-LIFE-CM.                      ECS025
  2670     MOVE DE-AH-TERM           TO D-AH-TERM.                      ECS025
  2671                                                                  ECS025
  2672     IF DE-AH-TYPE = ZEROS                                        ECS025
  2673         MOVE SPACES           TO D-AH-TYPE                       ECS025
  2674     ELSE                                                         ECS025
  2675         MOVE DE-AH-TYPE       TO D-AH-TYPE.                      ECS025
  2676                                                                  ECS025
  2677     MOVE A-PREM               TO D-AH-PREM.                      ECS025
  2678     MOVE D-AC                 TO D-AH-CM.                        ECS025
  2679     COMPUTE DET-NET-DUE = ((L-PREM + A-PREM) -                   ECS025
  2680         (D-LC + D-AC)).                                          ECS025
  2681                                                                  ECS025
  2682     MOVE DET-NET-DUE          TO D-NET-DUE.                      ECS025
  2683     MOVE PRT-DETAIL           TO P-DATA.                         ECS025
  2684     MOVE ' '                  TO X.                              ECS025
  2685     PERFORM 0460-PRT-LINE THRU 0470-PRT-EXIT.                    ECS025
  2686     ADD 1 TO LN-CT.                                              ECS025
  2687     MOVE +0                   TO D-LC  D-AC.                     ECS025
  2688                                                                  ECS025
  2689 0570-LINE-EXIT.                                                  ECS025
  2690     EXIT.                                                        ECS025
  2691                                                                  ECS025
  2692 ABEND-PGM SECTION.                                               ECS025
* 2693                             COPY ELCABEND.                       ECS025
  2694***************************************************************** 04/14/98
  2695*                                                               * ELCABEND
  2696*                            ELCABEND.                          *    LV003
  2697*           COPYBOOK REVIEWED FOR YEAR 2000 COMPLIANCE               CL**3
  2698*                            VMOD 2.002                              CL**2
  2699*                                                               * ELCABEND
  2700*                THIS SECTION DISPLAYS THE NECESSARY MESSAGES   * ELCABEND
  2701*            AND THEN ABENDS.                                   * ELCABEND
  2702*                                                               * ELCABEND
  2703*  NO  CID  MODS  IN  COPYBOOK  ELCABEND                        * ELCABEND
* Micro Focus Server Express         V5.1 revision 000 06-Oct-15 17:18 Page  50
* ECS025.cbl (/apps/prod/cid1p/copy/ELCABEND)
  2704*                                                               * ELCABEND
  2705***************************************************************** ELCABEND
  2706*APS-010.                                                         ELCABEND
  2707     DISPLAY WS-ABEND-MESSAGE.                                    ELCABEND
  2708     DISPLAY WS-ABEND-MESSAGE UPON CONSOLE.                       ELCABEND
  2709                                                                  ELCABEND
  2710     IF WS-ABEND-FILE-STATUS NOT = ZERO                           ELCABEND
  2711         DISPLAY 'FILE STATUS = ' WS-ABEND-FILE-STATUS            ELCABEND
  2712         DISPLAY 'FILE STATUS = ' WS-ABEND-FILE-STATUS            ELCABEND
  2713                                 UPON CONSOLE.                    ELCABEND
  2714                                                                  ELCABEND
  2715     IF WS-RETURN-CODE NOT = ZERO                                 ELCABEND
  2716         DISPLAY 'RETURN CODE = '  WS-RETURN-CODE                 ELCABEND
  2717         DISPLAY 'RETURN CODE = '  WS-RETURN-CODE                 ELCABEND
  2718                                 UPON CONSOLE.                    ELCABEND
  2719                                                                  ELCABEND
  2720     DISPLAY 'PROGRAM WILL NOW ABEND **************'              ELCABEND
  2721     DISPLAY 'PROGRAM WILL NOW ABEND **************'              ELCABEND
  2722                                 UPON CONSOLE.                    ELCABEND
  2723                                                                  ELCABEND
  2724     DIVIDE WS-ZERO BY WS-ZERO GIVING WS-ZERO.                    ELCABEND
  2725     CALL 'ABORTME'.
  2726                                                                  ELCABEND
  2727 APS-EXIT.                                                        ELCABEND
  2728     EXIT.                                                        ELCABEND
* Micro Focus Server Express         V5.1 revision 000 06-Oct-15 17:18 Page  51
* ECS025.cbl
  2729/                                                                 ECS025
  2730 LCP-WRITE-POS-PRT SECTION.                                       ECS025
  2731     IF LCP-ASA = '+'                                             ECS025
  2732         WRITE PRT AFTER 0 LINE                                   ECS025
  2733     ELSE                                                         ECS025
  2734     IF LCP-ASA = ' '                                             ECS025
  2735         WRITE PRT AFTER ADVANCING 1 LINE                         ECS025
  2736     ELSE                                                         ECS025
  2737     IF LCP-ASA = '0'                                             ECS025
  2738         WRITE PRT AFTER ADVANCING 2 LINE                         ECS025
  2739     ELSE                                                         ECS025
  2740     IF LCP-ASA = '-'                                             ECS025
  2741         WRITE PRT AFTER ADVANCING 3 LINE                         ECS025
  2742     ELSE                                                         ECS025
  2743     IF LCP-ASA = '1'                                             ECS025
  2744         WRITE PRT AFTER ADVANCING PAGE                           ECS025
  2745     ELSE                                                         ECS025
  2746     IF LCP-ASA = '2'                                             ECS025
  2747         WRITE PRT AFTER ADVANCING LCP-CH2                        ECS025
  2748     ELSE                                                         ECS025
  2749     IF LCP-ASA = '3'                                             ECS025
  2750         WRITE PRT AFTER ADVANCING LCP-CH3                        ECS025
  2751     ELSE                                                         ECS025
  2752     IF LCP-ASA = '4'                                             ECS025
  2753         WRITE PRT AFTER ADVANCING LCP-CH4                        ECS025
  2754     ELSE                                                         ECS025
  2755     IF LCP-ASA = '5'                                             ECS025
  2756         WRITE PRT AFTER ADVANCING LCP-CH5                        ECS025
  2757     ELSE                                                         ECS025
  2758     IF LCP-ASA = '6'                                             ECS025
  2759         WRITE PRT AFTER ADVANCING LCP-CH6                        ECS025
  2760     ELSE                                                         ECS025
  2761     IF LCP-ASA = '7'                                             ECS025
  2762         WRITE PRT AFTER ADVANCING LCP-CH7                        ECS025
  2763     ELSE                                                         ECS025
  2764     IF LCP-ASA = '8'                                             ECS025
  2765         WRITE PRT AFTER ADVANCING LCP-CH8                        ECS025
  2766     ELSE                                                         ECS025
  2767     IF LCP-ASA = '9'                                             ECS025
  2768         WRITE PRT AFTER ADVANCING LCP-CH9                        ECS025
  2769     ELSE                                                         ECS025
  2770     IF LCP-ASA = 'A'                                             ECS025
  2771         WRITE PRT AFTER ADVANCING LCP-CH10                       ECS025
  2772     ELSE                                                         ECS025
  2773     IF LCP-ASA = 'B'                                             ECS025
  2774         WRITE PRT AFTER ADVANCING LCP-CH11                       ECS025
  2775     ELSE                                                         ECS025
  2776     IF LCP-ASA = 'C'                                             ECS025
  2777         WRITE PRT AFTER ADVANCING LCP-CH12                       ECS025
  2778     ELSE                                                         ECS025
  2779     IF LCP-ASA = 'V'                                             ECS025
  2780         WRITE PRT AFTER ADVANCING LCP-P01                        ECS025
  2781     ELSE                                                         ECS025
  2782     IF LCP-ASA = 'W'                                             ECS025
  2783         WRITE PRT AFTER ADVANCING LCP-P02                        ECS025
  2784     ELSE                                                         ECS025
  2785     DISPLAY 'ASA CODE ERROR'.                                    ECS025
  2786 LCP-WRITE-END-PRT.                                               ECS025
* Micro Focus Server Express         V5.1 revision 000 06-Oct-15 17:18 Page  52
* ECS025.cbl
  2787     EXIT.                                                        ECS025
* Micro Focus Server Express         V5.1 revision 000 Compiler
* Copyright (C) Micro Focus IP Development Limited 1984-2012.
*                                                        REF GNR-008065005AF
* Total Messages:     0
* Data:       55280     Code:        8898
